(dp1
S'tmp_mWhYh'
p2
(lp3
sS'tmpqzvx74'
p4
(lp5
sS'tmp75Gkuu'
p6
(lp7
(I168
I100
S'back'
p8
tp9
a(I73
I91
S'empty'
p10
tp11
a(I255
I100
S'head'
p12
tp13
a(I166
I99
S'card'
p14
tp15
a(I249
I98
g14
tp16
asS'tmpG3E_gG'
p17
(lp18
(I69
I94
g8
tp19
a(I279
I113
g12
tp20
a(I75
I98
g14
tp21
asS'tmpzq6slG'
p22
(lp23
sS'tmpMzVNIG'
p24
(lp25
sS'tmpblWN83'
p26
(lp27
sS'tmpnLOLZX'
p28
(lp29
sS'tmpLPUHqH'
p30
(lp31
sS'tmpjF7YdM'
p32
(lp33
sS'tmpJtEZtu'
p34
(lp35
sS'tmp_vY9NB'
p36
(lp37
sS'tmpFKRlqg'
p38
(lp39
(I179
I101
g8
tp40
a(I257
I101
g12
tp41
a(I66
I87
g14
tp42
a(I172
I102
g14
tp43
a(I247
I105
g14
tp44
asS'tmpIw_8L0'
p45
(lp46
sS'tmp1u20JS'
p47
(lp48
(I75
I88
S'back'
p49
tp50
a(I259
I96
g12
tp51
a(I76
I95
g14
tp52
asS'tmp4Ci53G'
p53
(lp54
(I175
I93
g8
tp55
a(I164
I100
g12
tp56
a(I84
I89
g14
tp57
a(I167
I97
g14
tp58
a(I258
I92
g14
tp59
asS'tmpAxebAw'
p60
(lp61
(I167
I111
g8
tp62
a(I248
I102
g12
tp63
a(I73
I98
g14
tp64
a(I174
I116
g14
tp65
a(I252
I116
g14
tp66
asS'tmpWrvlV1'
p67
(lp68
sS'tmp2niOIl'
p69
(lp70
(I172
I102
g8
tp71
a(I251
I102
g12
tp72
a(I78
I96
g14
tp73
a(I175
I115
g14
tp74
a(I257
I105
g14
tp75
asS'tmpQIUCm8'
p76
(lp77
sS'tmpeZDP7N'
p78
(lp79
sS'tmp2g76Kf'
p80
(lp81
(I163
I115
g8
tp82
a(I255
I106
g12
tp83
a(I85
I105
g14
tp84
a(I163
I122
g14
tp85
a(I253
I112
g14
tp86
asS'tmpFfeovW'
p87
(lp88
(I255
I101
g12
tp89
a(I72
I102
g14
tp90
asS'tmp9ULyge'
p91
(lp92
(I168
I123
g8
tp93
a(I163
I103
g12
tp94
a(I81
I107
g14
tp95
a(I161
I122
g14
tp96
a(I256
I117
g14
tp97
asS'tmpj626hH'
p98
(lp99
sS'tmpYr_u5h'
p100
(lp101
sS'tmpcdU7ye'
p102
(lp103
sS'tmp90t8B3'
p104
(lp105
(I73
I109
g8
tp106
a(I166
I118
g8
tp107
a(I241
I112
g8
tp108
a(I169
I103
g12
tp109
a(I71
I100
g14
tp110
a(I165
I116
g14
tp111
a(I243
I118
g14
tp112
asS'tmpTX21MN'
p113
(lp114
sS'tmp_cUThv'
p115
(lp116
sS'tmpYmwss4'
p117
(lp118
sS'tmpD0_pOw'
p119
(lp120
(I83
I46
g8
tp121
a(I173
I57
g8
tp122
a(I233
I59
g8
tp123
a(I256
I44
g12
tp124
a(I78
I56
g14
tp125
a(I172
I64
g14
tp126
a(I231
I56
g14
tp127
asS'tmpzhbqAL'
p128
(lp129
sS'tmpjY3Lho'
p130
(lp131
sS'tmpv_8lVR'
p132
(lp133
sS'tmpgya2u4'
p134
(lp135
sS'tmp2Maxj9'
p136
(lp137
(I162
I110
g49
tp138
a(I256
I98
g49
tp139
a(I261
I101
g12
tp140
a(I70
I93
g14
tp141
a(I169
I115
g14
tp142
a(I249
I101
g14
tp143
asS'tmpsfaou1'
p144
(lp145
sS'tmpCoda5t'
p146
(lp147
(I84
I53
g8
tp148
a(I174
I64
g8
tp149
a(I239
I54
g8
tp150
a(I177
I46
g12
tp151
a(I85
I58
g14
tp152
a(I171
I69
g14
tp153
a(I237
I62
g14
tp154
asS'tmpzFCQLY'
p155
(lp156
sS'tmp7jEKtK'
p157
(lp158
(I73
I93
g8
tp159
a(I169
I103
g8
tp160
a(I244
I109
g8
tp161
a(I179
I96
g12
tp162
a(I73
I100
g14
tp163
a(I172
I108
g14
tp164
a(I241
I111
g14
tp165
asS'tmpdtwkrg'
p166
(lp167
sS'tmpLpDat_'
p168
(lp169
sS'tmpRqzSXT'
p170
(lp171
sS'tmpj2N7It'
p172
(lp173
sS'tmpuUIEup'
p174
(lp175
sS'tmp3eLr4q'
p176
(lp177
(I153
I117
g8
tp178
a(I68
I101
g8
tp179
a(I257
I101
g12
tp180
a(I147
I115
g14
tp181
a(I57
I102
g14
tp182
a(I249
I112
g14
tp183
asS'tmpCVYz5h'
p184
(lp185
(I160
I110
g8
tp186
a(I260
I98
g8
tp187
a(I71
I104
g8
tp188
a(I258
I96
g12
tp189
a(I78
I103
g14
tp190
a(I167
I114
g14
tp191
a(I255
I104
g14
tp192
asS'tmpJovJCF'
p193
(lp194
sS'tmpveWoDy'
p195
(lp196
sS'tmp7GLDGL'
p197
(lp198
(I168
I96
g8
tp199
a(I250
I94
g8
tp200
a(I75
I84
g8
tp201
a(I268
I100
g12
tp202
a(I79
I88
g14
tp203
a(I174
I96
g14
tp204
a(I246
I96
g14
tp205
asS'tmpZQFYx4'
p206
(lp207
sS'tmpBZXy8X'
p208
(lp209
(I161
I116
g8
tp210
a(I258
I114
g8
tp211
a(I261
I98
g12
tp212
a(I69
I111
g14
tp213
a(I156
I120
g14
tp214
a(I254
I121
g14
tp215
asS'tmpMAGgZq'
p216
(lp217
sS'tmpKq1jYO'
p218
(lp219
sS'tmpUKzBtg'
p220
(lp221
sS'tmpgcQsdb'
p222
(lp223
sS'tmpAhzlGr'
p224
(lp225
(I162
I117
g8
tp226
a(I258
I100
g12
tp227
a(I71
I102
g14
tp228
a(I159
I116
g14
tp229
a(I248
I120
g14
tp230
asS'tmpXpDgv2'
p231
(lp232
sS'tmpfEf17t'
p233
(lp234
sS'tmp9hfRgm'
p235
(lp236
(I78
I102
g8
tp237
a(I159
I91
g8
tp238
a(I177
I101
g12
tp239
a(I77
I107
g14
tp240
a(I155
I96
g14
tp241
a(I248
I104
g14
tp242
asS'tmpFQEPMI'
p243
(lp244
(I75
I99
g8
tp245
a(I180
I104
g8
tp246
a(I184
I94
g12
tp247
a(I81
I101
g14
tp248
a(I180
I106
g14
tp249
a(I248
I112
g14
tp250
asS'tmp2McwTA'
p251
(lp252
(I172
I103
g49
tp253
a(I251
I100
g12
tp254
a(I75
I90
g14
tp255
a(I168
I109
g14
tp256
a(I246
I96
g14
tp257
asS'tmpIWfpop'
p258
(lp259
(I61
I111
g8
tp260
a(I160
I121
g8
tp261
a(I255
I115
g8
tp262
a(I62
I111
g14
tp263
a(I163
I114
g14
tp264
a(I253
I115
g14
tp265
asS'tmp_zLx74'
p266
(lp267
sS'tmpBoZJKg'
p268
(lp269
(I162
I108
g8
tp270
a(I258
I99
g12
tp271
a(I73
I99
g14
tp272
a(I161
I111
g14
tp273
a(I253
I110
g14
tp274
asS'tmpdhArYk'
p275
(lp276
sS'tmp3uQ4rw'
p277
(lp278
(I159
I103
g8
tp279
a(I257
I99
g12
tp280
a(I77
I99
g14
tp281
a(I169
I103
g14
tp282
a(I259
I101
g14
tp283
asS'tmpdNwoVt'
p284
(lp285
sS'tmppQJHpa'
p286
(lp287
sS'tmpXX7l4l'
p288
(lp289
sS'tmparvXWm'
p290
(lp291
sS'tmpgrQ82j'
p292
(lp293
sS'tmpakw0YC'
p294
(lp295
sS'tmpi1BN7y'
p296
(lp297
sS'tmpQDCZxD'
p298
(lp299
sS'tmpBAhl8y'
p300
(lp301
(I59
I105
g8
tp302
a(I261
I102
g12
tp303
a(I52
I111
g14
tp304
a(I131
I124
g14
tp305
a(I245
I121
g14
tp306
asS'tmpfCBG13'
p307
(lp308
sS'tmp_XNyQF'
p309
(lp310
sS'tmp3SP0z9'
p311
(lp312
(I72
I93
g8
tp313
a(I156
I96
g8
tp314
a(I255
I104
g12
tp315
a(I75
I93
g14
tp316
a(I158
I103
g14
tp317
a(I255
I98
g14
tp318
asS'tmpHnhxYi'
p319
(lp320
(I77
I103
g8
tp321
a(I161
I72
g8
tp322
a(I77
I103
g14
tp323
a(I162
I73
g14
tp324
a(I255
I105
g14
tp325
asS'tmpLQ5Le5'
p326
(lp327
sS'tmpD3ckej'
p328
(lp329
(I167
I105
g8
tp330
a(I248
I105
g12
tp331
a(I65
I96
g14
tp332
a(I171
I109
g14
tp333
a(I244
I109
g14
tp334
asS'tmpqcbor1'
p335
(lp336
sS'tmpYPSkej'
p337
(lp338
sS'tmpU6Kxn0'
p339
(lp340
sS'tmpvtAKs8'
p341
(lp342
sS'tmpOyT_0p'
p343
(lp344
sS'tmpQ_aIRt'
p345
(lp346
sS'tmpok5sgv'
p347
(lp348
sS'tmpsRBdLB'
p349
(lp350
sS'tmpBiCque'
p351
(lp352
(I159
I106
g8
tp353
a(I77
I99
g8
tp354
a(I259
I99
g12
tp355
a(I80
I94
g14
tp356
a(I159
I110
g14
tp357
a(I254
I111
g14
tp358
asS'tmpYurRyb'
p359
(lp360
sS'tmpu1gGXr'
p361
(lp362
sS'tmprjzFlx'
p363
(lp364
sS'tmpF9JkvP'
p365
(lp366
(I80
I99
g8
tp367
a(I184
I107
g8
tp368
a(I185
I98
g12
tp369
a(I83
I94
g14
tp370
a(I179
I105
g14
tp371
a(I251
I107
g14
tp372
asS'tmpDgxHnC'
p373
(lp374
(I267
I44
g12
tp375
a(I78
I54
g14
tp376
a(I241
I61
g14
tp377
asS'tmpj0MCSZ'
p378
(lp379
sS'tmp6SuccW'
p380
(lp381
(I170
I102
g8
tp382
a(I245
I102
g12
tp383
a(I80
I88
g14
tp384
a(I173
I105
g14
tp385
a(I241
I107
g14
tp386
asS'tmpRU3F_t'
p387
(lp388
sS'tmp9mIFar'
p389
(lp390
(I72
I106
g8
tp391
a(I169
I121
g8
tp392
a(I176
I97
g12
tp393
a(I73
I112
g14
tp394
a(I167
I123
g14
tp395
a(I257
I115
g14
tp396
asS'tmprDBkOr'
p397
(lp398
sS'tmpOwZ9mY'
p399
(lp400
sS'tmprvTZEm'
p401
(lp402
sS'tmpZATvas'
p403
(lp404
sS'tmpGF4m1J'
p405
(lp406
(I169
I112
g8
tp407
a(I248
I111
g8
tp408
a(I246
I100
g12
tp409
a(I70
I103
g14
tp410
a(I165
I112
g14
tp411
a(I246
I112
g14
tp412
asS'tmpHfGqoF'
p413
(lp414
(I115
I79
g8
tp415
a(I118
I83
g14
tp416
asS'tmpiLENkY'
p417
(lp418
sS'tmp9CVCPF'
p419
(lp420
(I153
I96
g8
tp421
a(I69
I86
g8
tp422
a(I259
I102
g12
tp423
a(I66
I92
g14
tp424
a(I159
I101
g14
tp425
a(I248
I96
g14
tp426
asS'tmpkrXD5D'
p427
(lp428
sS'tmp4NhALY'
p429
(lp430
(I161
I93
g8
tp431
a(I170
I98
g12
tp432
a(I76
I82
g14
tp433
a(I163
I98
g14
tp434
a(I251
I107
g14
tp435
asS'tmp7I5NGr'
p436
(lp437
(I161
I114
g8
tp438
a(I66
I98
g8
tp439
a(I262
I102
g12
tp440
a(I68
I106
g14
tp441
a(I156
I118
g14
tp442
a(I252
I109
g14
tp443
asS'tmplCMhp3'
p444
(lp445
sS'tmpPY921I'
p446
(lp447
sS'tmp3AO1Sc'
p448
(lp449
(I164
I103
g8
tp450
a(I256
I103
g12
tp451
a(I72
I93
g14
tp452
a(I163
I112
g14
tp453
a(I255
I112
g14
tp454
asS'tmpIUT7Ca'
p455
(lp456
(I169
I99
g8
tp457
a(I72
I91
g10
tp458
a(I172
I98
g14
tp459
a(I249
I103
g14
tp460
asS'tmpDM0_K9'
p461
(lp462
(I163
I98
g8
tp463
a(I83
I89
g8
tp464
a(I254
I102
g12
tp465
a(I75
I91
g14
tp466
a(I162
I101
g14
tp467
a(I254
I93
g14
tp468
asS'tmpcNo3f0'
p469
(lp470
sS'tmpzG0JVw'
p471
(lp472
sS'tmpe208Ee'
p473
(lp474
sS'tmpt1gHNK'
p475
(lp476
sS'tmpWA6Pir'
p477
(lp478
sS'tmpjzAtZI'
p479
(lp480
sS'tmp4kOaj0'
p481
(lp482
(I79
I87
g8
tp483
a(I246
I104
g12
tp484
a(I74
I91
g14
tp485
a(I167
I101
g14
tp486
a(I246
I99
g14
tp487
asS'tmpNRRbNz'
p488
(lp489
sS'tmp5GDZqq'
p490
(lp491
(I168
I119
g8
tp492
a(I70
I108
g8
tp493
a(I248
I116
g8
tp494
a(I250
I105
g12
tp495
a(I74
I111
g14
tp496
a(I170
I121
g14
tp497
a(I248
I114
g14
tp498
asS'tmps96HdO'
p499
(lp500
sS'tmpSNiiCD'
p501
(lp502
sS'tmpUWS4Tt'
p503
(lp504
sS'tmppI2I8H'
p505
(lp506
sS'tmpxh81Om'
p507
(lp508
sS'tmpZ5FAXb'
p509
(lp510
sS'tmpudaX49'
p511
(lp512
sS'tmpN0FlmE'
p513
(lp514
sS'tmpD0fWDE'
p515
(lp516
(I75
I108
g8
tp517
a(I167
I115
g8
tp518
a(I234
I111
g8
tp519
a(I255
I103
g12
tp520
a(I73
I107
g14
tp521
a(I169
I119
g14
tp522
a(I234
I118
g14
tp523
asS'tmprtKj3p'
p524
(lp525
sS'tmp2Pa0WU'
p526
(lp527
(I77
I92
g49
tp528
a(I174
I112
g49
tp529
a(I254
I111
g49
tp530
a(I246
I99
g12
tp531
a(I82
I99
g14
tp532
a(I177
I103
g14
tp533
a(I246
I112
g14
tp534
asS'tmp5ilPWQ'
p535
(lp536
(I175
I56
g8
tp537
a(I244
I50
g8
tp538
a(I268
I45
g12
tp539
a(I84
I48
g14
tp540
a(I176
I55
g14
tp541
a(I241
I56
g14
tp542
asS'tmpy0hVrH'
p543
(lp544
sS'tmpBQnaC5'
p545
(lp546
(I67
I98
g8
tp547
a(I221
I105
g12
tp548
a(I78
I100
g14
tp549
asS'tmpirDmrM'
p550
(lp551
sS'tmptPNI87'
p552
(lp553
sS'tmp0pzufr'
p554
(lp555
(I80
I93
S'back'
p556
tp557
a(I183
I105
S'back'
p558
tp559
a(I171
I100
g12
tp560
a(I251
I102
g14
tp561
a(I181
I106
g14
tp562
a(I77
I94
g14
tp563
asS'tmpjUbM5Z'
p564
(lp565
sS'tmpocydkg'
p566
(lp567
sS'tmpYOGiyi'
p568
(lp569
sS'tmpnTCwaK'
p570
(lp571
sS'tmp57yR2b'
p572
(lp573
(I164
I123
g8
tp574
a(I251
I112
g8
tp575
a(I258
I97
g12
tp576
a(I68
I104
g14
tp577
a(I159
I112
g14
tp578
a(I255
I116
g14
tp579
asS'tmp7CCut3'
p580
(lp581
(I265
I95
g8
tp582
a(I274
I94
g12
tp583
a(I76
I94
g14
tp584
a(I262
I100
g14
tp585
asS'tmp1mjDg3'
p586
(lp587
(I67
I115
g49
tp588
a(I163
I109
g49
tp589
a(I246
I116
g49
tp590
a(I248
I102
g12
tp591
a(I66
I103
g14
tp592
a(I160
I114
g14
tp593
a(I241
I109
g14
tp594
asS'tmp_3KoM5'
p595
(lp596
sS'tmpCK_P6c'
p597
(lp598
(I164
I76
g12
tp599
a(I148
I79
g14
tp600
asS'tmpm50WZl'
p601
(lp602
sS'tmpGOOZma'
p603
(lp604
(I78
I97
g8
tp605
a(I176
I114
g8
tp606
a(I245
I104
g12
tp607
a(I78
I100
g14
tp608
a(I175
I112
g14
tp609
a(I243
I111
g14
tp610
asS'tmp9qkM7v'
p611
(lp612
(I160
I108
g8
tp613
a(I253
I92
g8
tp614
a(I262
I98
g12
tp615
a(I65
I82
g14
tp616
a(I160
I111
g14
tp617
a(I257
I93
g14
tp618
asS'tmpSyJsTj'
p619
(lp620
sS'tmpzVS2sx'
p621
(lp622
sS'tmpq_YlOm'
p623
(lp624
sS'tmpfbvRpq'
p625
(lp626
sS'tmp4qFFCy'
p627
(lp628
(I172
I100
g12
tp629
a(I67
I77
g14
tp630
a(I237
I110
g14
tp631
asS'tmp8foduK'
p632
(lp633
(I162
I121
g8
tp634
a(I250
I103
g12
tp635
a(I77
I111
g14
tp636
a(I161
I116
g14
tp637
a(I231
I120
g14
tp638
asS'tmp8kehDp'
p639
(lp640
(I164
I109
g8
tp641
a(I80
I89
g8
tp642
a(I253
I103
g12
tp643
a(I84
I96
g14
tp644
a(I161
I110
g14
tp645
a(I260
I106
g14
tp646
asS'tmp5oTvNo'
p647
(lp648
(I161
I102
g8
tp649
a(I74
I108
g8
tp650
a(I260
I102
g12
tp651
a(I73
I110
g14
tp652
a(I167
I112
g14
tp653
a(I244
I120
g14
tp654
asS'tmppl4oW7'
p655
(lp656
sS'tmp2kZ5bu'
p657
(lp658
(I158
I110
g8
tp659
a(I255
I114
g8
tp660
a(I258
I101
g12
tp661
a(I64
I101
g14
tp662
a(I158
I112
g14
tp663
a(I250
I110
g14
tp664
asS'tmpQG9BeO'
p665
(lp666
sS'tmp4JLrpB'
p667
(lp668
(I271
I103
g12
tp669
a(I73
I94
g14
tp670
a(I241
I112
g14
tp671
asS'tmpgeRdXs'
p672
(lp673
sS'tmpt2CL5H'
p674
(lp675
sS'tmp_bw7Kt'
p676
(lp677
sS'tmpFAEVtX'
p678
(lp679
(I162
I121
g8
tp680
a(I251
I114
g8
tp681
a(I175
I101
g12
tp682
a(I59
I111
g14
tp683
a(I163
I124
g14
tp684
a(I252
I121
g14
tp685
asS'tmp1TzKrE'
p686
(lp687
(I76
I101
g558
tp688
a(I170
I99
g558
tp689
a(I249
I103
g12
tp690
a(I73
I96
g14
tp691
a(I166
I104
g14
tp692
a(I244
I100
g14
tp693
asS'tmpEr770S'
p694
(lp695
(I255
I103
g12
tp696
a(I73
I98
g14
tp697
a(I257
I111
g14
tp698
asS'tmpBCYoxh'
p699
(lp700
(I87
I114
g8
tp701
a(I163
I111
g8
tp702
a(I255
I106
g12
tp703
a(I80
I107
g14
tp704
a(I161
I114
g14
tp705
a(I255
I122
g14
tp706
asS'tmpf0pc2K'
p707
(lp708
sS'tmpNL_C34'
p709
(lp710
sS'tmpPwSreF'
p711
(lp712
sS'tmppgIPO6'
p713
(lp714
sS'tmpWSw6hQ'
p715
(lp716
sS'tmpeLD32m'
p717
(lp718
sS'tmpTc7huQ'
p719
(lp720
sS'tmpAhd961'
p721
(lp722
(I164
I114
g8
tp723
a(I77
I110
g8
tp724
a(I265
I100
g12
tp725
a(I71
I109
g14
tp726
a(I163
I113
g14
tp727
a(I256
I112
g14
tp728
asS'tmpqWGU_v'
p729
(lp730
sS'tmp9vXwYw'
p731
(lp732
(I265
I102
g12
tp733
a(I72
I96
g14
tp734
asS'tmpPGDp3z'
p735
(lp736
sS'tmpkF_uRj'
p737
(lp738
sS'tmp7EJOVq'
p739
(lp740
(I243
I100
g12
tp741
a(I68
I89
g14
tp742
a(I243
I90
g14
tp743
asS'tmpAIKBMQ'
p744
(lp745
(I161
I110
g8
tp746
a(I72
I100
g8
tp747
a(I251
I106
g12
tp748
a(I64
I94
g14
tp749
a(I160
I105
g14
tp750
a(I239
I109
g14
tp751
asS'tmpca7ESm'
p752
(lp753
sS'tmpyKZ17Y'
p754
(lp755
sS'tmp7TJpwp'
p756
(lp757
(I57
I93
g8
tp758
a(I208
I105
g8
tp759
a(I227
I93
g12
tp760
a(I65
I96
g14
tp761
a(I206
I109
g14
tp762
asS'tmprlWcSs'
p763
(lp764
sS'tmpszlVeY'
p765
(lp766
sS'tmpmT9JCQ'
p767
(lp768
sS'tmpoxUCSs'
p769
(lp770
sS'tmpGlxhyP'
p771
(lp772
(I160
I116
g8
tp773
a(I58
I114
g14
tp774
a(I161
I123
g14
tp775
a(I253
I120
g14
tp776
asS'tmp1xgY7N'
p777
(lp778
(I74
I91
g49
tp779
a(I158
I110
g49
tp780
a(I253
I99
g12
tp781
a(I73
I92
g14
tp782
a(I152
I107
g14
tp783
a(I244
I102
g14
tp784
asS'tmp0OF7TW'
p785
(lp786
(I69
I127
g556
tp787
a(I235
I114
g556
tp788
a(I166
I117
g558
tp789
a(I167
I102
g12
tp790
a(I66
I124
g14
tp791
a(I171
I121
g14
tp792
a(I241
I121
g14
tp793
asS'tmpClENxk'
p794
(lp795
(I68
I103
g8
tp796
a(I166
I118
g8
tp797
a(I255
I107
g12
tp798
a(I63
I108
g14
tp799
a(I160
I116
g14
tp800
a(I248
I114
g14
tp801
asS'tmpZoR0wZ'
p802
(lp803
sS'tmpp7UsSz'
p804
(lp805
sS'tmpTyKZt3'
p806
(lp807
sS'tmpY3hib7'
p808
(lp809
sS'tmpR5wUtp'
p810
(lp811
sS'tmpwquTzW'
p812
(lp813
sS'tmp5WLnLx'
p814
(lp815
(I77
I109
g8
tp816
a(I170
I112
g8
tp817
a(I243
I116
g8
tp818
a(I170
I100
g12
tp819
a(I75
I107
g14
tp820
a(I164
I108
g14
tp821
a(I240
I108
g14
tp822
asS'tmp1Mw6Zt'
p823
(lp824
(I71
I114
g558
tp825
a(I167
I114
g558
tp826
a(I163
I96
g12
tp827
a(I69
I109
g14
tp828
a(I159
I110
g14
tp829
a(I248
I113
g14
tp830
asS'tmpxUWFEx'
p831
(lp832
sS'tmpBy8L7X'
p833
(lp834
(I169
I110
g8
tp835
a(I77
I90
g8
tp836
a(I261
I103
g12
tp837
a(I70
I98
g14
tp838
a(I164
I117
g14
tp839
a(I244
I117
g14
tp840
asS'tmpbN3rrl'
p841
(lp842
sS'tmpStfsi2'
p843
(lp844
sS'tmpXpzyle'
p845
(lp846
sS'tmpK7jXMg'
p847
(lp848
sS'tmpLd37Zt'
p849
(lp850
sS'tmpWgodg9'
p851
(lp852
sS'tmpa5a62l'
p853
(lp854
sS'tmp95lBNl'
p855
(lp856
(I77
I107
g8
tp857
a(I172
I107
g8
tp858
a(I175
I101
g12
tp859
a(I72
I101
g14
tp860
a(I170
I107
g14
tp861
a(I238
I112
g14
tp862
asS'tmpgFy5bo'
p863
(lp864
sS'tmpdXhSBP'
p865
(lp866
sS'tmpHICx1R'
p867
(lp868
(I87
I103
g8
tp869
a(I316
I128
g8
tp870
a(I85
I105
g14
tp871
a(I241
I124
g14
tp872
a(I323
I124
g14
tp873
asS'tmplf2VQ9'
p874
(lp875
sS'tmprjlS7n'
p876
(lp877
sS'tmpUAbLEs'
p878
(lp879
sS'tmpO2QjB9'
p880
(lp881
sS'tmpZ6rPy_'
p882
(lp883
sS'tmpeFoZEl'
p884
(lp885
sS'tmpSEESK6'
p886
(lp887
sS'tmpYB_OK2'
p888
(lp889
sS'tmpheXyAu'
p890
(lp891
sS'tmpsZiRPg'
p892
(lp893
sS'tmp5BGFXF'
p894
(lp895
(I77
I93
g8
tp896
a(I249
I91
g8
tp897
a(I250
I105
g12
tp898
a(I75
I89
g14
tp899
a(I170
I105
g14
tp900
a(I248
I103
g14
tp901
asS'tmpzUoVkI'
p902
(lp903
sS'tmppumegR'
p904
(lp905
sS'tmpPyXRry'
p906
(lp907
sS'tmpipvkM9'
p908
(lp909
sS'tmpknew6m'
p910
(lp911
sS'tmp6Z7oVD'
p912
(lp913
(I164
I93
g8
tp914
a(I80
I86
g8
tp915
a(I264
I96
g12
tp916
a(I80
I86
g14
tp917
a(I164
I93
g14
tp918
a(I263
I98
g14
tp919
asS'tmpExbKBr'
p920
(lp921
(I155
I101
g8
tp922
a(I256
I103
g12
tp923
a(I65
I91
g14
tp924
a(I162
I100
g14
tp925
a(I244
I109
g14
tp926
asS'tmpUIcZw4'
p927
(lp928
sS'tmpoRjuko'
p929
(lp930
sS'tmpLPDfBf'
p931
(lp932
sS'tmpyrTYcG'
p933
(lp934
sS'tmpMQ8yTg'
p935
(lp936
sS'tmp3ZlqXG'
p937
(lp938
(I166
I98
g8
tp939
a(I68
I93
g10
tp940
a(I240
I105
g12
tp941
a(I167
I104
g14
tp942
a(I241
I105
g14
tp943
asS'tmpakSZmA'
p944
(lp945
sS'tmpT1no2S'
p946
(lp947
sS'tmpcBhVd9'
p948
(lp949
sS'tmpOQ2phW'
p950
(lp951
sS'tmpmFFpWO'
p952
(lp953
sS'tmpOrZ3ME'
p954
(lp955
sS'tmpWeWVEx'
p956
(lp957
sS'tmpAmIku0'
p958
(lp959
(I168
I117
g8
tp960
a(I255
I106
g12
tp961
a(I87
I105
g14
tp962
a(I164
I120
g14
tp963
a(I263
I123
g14
tp964
asS'tmpoUie17'
p965
(lp966
sS'tmpx8Nwcl'
p967
(lp968
sS'tmpg1fgEJ'
p969
(lp970
sS'tmphTtImw'
p971
(lp972
sS'tmpkHUqTB'
p973
(lp974
sS'tmpGX47vA'
p975
(lp976
(I68
I91
g8
tp977
a(I244
I103
g12
tp978
a(I74
I94
g14
tp979
a(I240
I100
g14
tp980
asS'tmppu2G2l'
p981
(lp982
sS'tmpn6Wswf'
p983
(lp984
sS'tmpeZqj6c'
p985
(lp986
sS'tmpz1LXPE'
p987
(lp988
sS'tmptT9ofb'
p989
(lp990
sS'tmpXacWHx'
p991
(lp992
sS'tmpqeKq96'
p993
(lp994
sS'tmp1BFQag'
p995
(lp996
(I167
I110
g558
tp997
a(I273
I104
g12
tp998
a(I69
I93
g14
tp999
a(I159
I102
g14
tp1000
a(I235
I109
g14
tp1001
asS'tmpbvQQqy'
p1002
(lp1003
sS'tmp7GP54f'
p1004
(lp1005
(I167
I105
g8
tp1006
a(I247
I103
g12
tp1007
a(I66
I92
g14
tp1008
a(I165
I102
g14
tp1009
a(I242
I96
g14
tp1010
asS'tmpbR7x_D'
p1011
(lp1012
sS'tmpeOoGsl'
p1013
(lp1014
sS'tmpVri5YA'
p1015
(lp1016
sS'tmpyyskNO'
p1017
(lp1018
sS'tmpwIv3es'
p1019
(lp1020
sS'tmpoXZIgV'
p1021
(lp1022
sS'tmpIrsDGS'
p1023
(lp1024
(I70
I100
g14
tp1025
a(I170
I94
g14
tp1026
a(I227
I105
g14
tp1027
asS'tmpzphk7F'
p1028
(lp1029
sS'tmpYJrnmR'
p1030
(lp1031
sS'tmplSkS8i'
p1032
(lp1033
sS'tmps6iC9U'
p1034
(lp1035
sS'tmpuyBeMH'
p1036
(lp1037
sS'tmpyMPc7r'
p1038
(lp1039
sS'tmpM8MYnG'
p1040
(lp1041
sS'tmpfbdjMk'
p1042
(lp1043
sS'tmpeMuXIQ'
p1044
(lp1045
sS'tmpKlDxH1'
p1046
(lp1047
sS'tmpSVPz3u'
p1048
(lp1049
sS'tmpDVzwlF'
p1050
(lp1051
(I169
I52
g8
tp1052
a(I98
I37
g8
tp1053
a(I270
I40
g12
tp1054
a(I98
I51
g14
tp1055
a(I168
I57
g14
tp1056
a(I271
I50
g14
tp1057
asS'tmprDR9wW'
p1058
(lp1059
sS'tmpkgbEVD'
p1060
(lp1061
sS'tmpu2PhEB'
p1062
(lp1063
sS'tmpKjDJk9'
p1064
(lp1065
sS'tmpOvfwHw'
p1066
(lp1067
sS'tmpCSwEKB'
p1068
(lp1069
(I175
I93
g8
tp1070
a(I83
I89
g10
tp1071
a(I165
I102
g12
tp1072
a(I174
I94
g14
tp1073
a(I253
I93
g14
tp1074
asS'tmpIXSxUG'
p1075
(lp1076
(I82
I122
g14
tp1077
a(I167
I122
g14
tp1078
a(I233
I121
g14
tp1079
asS'tmpiQUeZ9'
p1080
(lp1081
sS'tmprKeSYj'
p1082
(lp1083
sS'tmp41N6lJ'
p1084
(lp1085
(I243
I104
g8
tp1086
a(I171
I99
g8
tp1087
a(I167
I105
g12
tp1088
a(I72
I95
g14
tp1089
a(I176
I104
g14
tp1090
a(I243
I109
g14
tp1091
asS'tmpEOH4md'
p1092
(lp1093
(I165
I109
g8
tp1094
a(I246
I107
g12
tp1095
a(I78
I98
g14
tp1096
a(I165
I110
g14
tp1097
a(I245
I115
g14
tp1098
asS'tmpP4RSOG'
p1099
(lp1100
sS'tmpILSWsR'
p1101
(lp1102
(I70
I82
g8
tp1103
a(I153
I108
g8
tp1104
a(I74
I95
g14
tp1105
a(I161
I106
g14
tp1106
a(I252
I102
g14
tp1107
asS'tmpVMHANa'
p1108
(lp1109
sS'tmpV5DrmN'
p1110
(lp1111
sS'tmpr2OhBh'
p1112
(lp1113
sS'tmppsnf_p'
p1114
(lp1115
sS'tmpeQrxPh'
p1116
(lp1117
sS'tmpkvMxFZ'
p1118
(lp1119
sS'tmps69nSs'
p1120
(lp1121
sS'tmpMIUPCX'
p1122
(lp1123
sS'tmpXQWqoN'
p1124
(lp1125
sS'tmp3W94mW'
p1126
(lp1127
(I170
I105
g8
tp1128
a(I174
I99
g12
tp1129
a(I67
I96
g14
tp1130
a(I170
I103
g14
tp1131
a(I237
I107
g14
tp1132
asS'tmpHw9B6t'
p1133
(lp1134
(I74
I103
g14
tp1135
a(I161
I114
g14
tp1136
a(I261
I104
g14
tp1137
asS'tmpXE22Y6'
p1138
(lp1139
sS'tmpA0tAKN'
p1140
(lp1141
(I161
I93
g8
tp1142
a(I72
I86
g8
tp1143
a(I241
I102
g12
tp1144
a(I72
I94
g14
tp1145
a(I168
I96
g14
tp1146
a(I225
I103
g14
tp1147
asS'tmpTN_Y8a'
p1148
(lp1149
sS'tmpGbIRdn'
p1150
(lp1151
(I73
I45
g8
tp1152
a(I248
I59
g8
tp1153
a(I270
I41
g12
tp1154
a(I80
I48
g14
tp1155
a(I244
I65
g14
tp1156
asS'tmpKZVUwT'
p1157
(lp1158
sS'tmplqPiDk'
p1159
(lp1160
sS'tmp4MiTbh'
p1161
(lp1162
(I165
I106
g8
tp1163
a(I78
I92
g8
tp1164
a(I258
I106
g12
tp1165
a(I66
I96
g14
tp1166
a(I160
I106
g14
tp1167
a(I250
I110
g14
tp1168
asS'tmpuZSiv0'
p1169
(lp1170
sS'tmpfEz9O2'
p1171
(lp1172
sS'tmpFGqKLa'
p1173
(lp1174
(I82
I93
g8
tp1175
a(I177
I112
g8
tp1176
a(I248
I102
g12
tp1177
a(I75
I98
g14
tp1178
a(I172
I103
g14
tp1179
a(I247
I112
g14
tp1180
asS'tmpjb2hU2'
p1181
(lp1182
sS'tmpXn_1OO'
p1183
(lp1184
sS'tmpmCeY5V'
p1185
(lp1186
sS'tmpHQtKys'
p1187
(lp1188
(I83
I47
g8
tp1189
a(I175
I67
g8
tp1190
a(I236
I61
g8
tp1191
a(I79
I55
g14
tp1192
a(I177
I69
g14
tp1193
a(I236
I68
g14
tp1194
asS'tmpmKkCJi'
p1195
(lp1196
sS'tmpJT7Z4c'
p1197
(lp1198
sS'tmpCSRzXA'
p1199
(lp1200
(I54
I94
g8
tp1201
a(I150
I116
g8
tp1202
a(I212
I101
g8
tp1203
a(I152
I89
g12
tp1204
a(I54
I99
g14
tp1205
a(I147
I120
g14
tp1206
a(I216
I112
g14
tp1207
asS'tmpxVQ4N1'
p1208
(lp1209
sS'tmp8LriFB'
p1210
(lp1211
(I165
I113
g8
tp1212
a(I69
I110
g8
tp1213
a(I248
I102
g12
tp1214
a(I63
I102
g14
tp1215
a(I166
I115
g14
tp1216
a(I245
I108
g14
tp1217
asS'tmp6OOyQk'
p1218
(lp1219
(I246
I57
g8
tp1220
a(I270
I42
g12
tp1221
a(I79
I44
g14
tp1222
a(I246
I57
g14
tp1223
asS'tmpMdZvJf'
p1224
(lp1225
sS'tmpk8oRQl'
p1226
(lp1227
sS'tmpsiib4b'
p1228
(lp1229
sS'tmpaiPCo0'
p1230
(lp1231
sS'tmp2ZFwzV'
p1232
(lp1233
(I183
I109
g49
tp1234
a(I258
I112
g49
tp1235
a(I173
I100
g12
tp1236
a(I77
I100
g14
tp1237
a(I179
I101
g14
tp1238
a(I253
I106
g14
tp1239
asS'tmpNH6BuF'
p1240
(lp1241
sS'tmp2g69Kj'
p1242
(lp1243
(I166
I98
g8
tp1244
a(I70
I89
g10
tp1245
a(I239
I102
g12
tp1246
a(I161
I99
g14
tp1247
a(I241
I102
g14
tp1248
asS'tmpMUkGTx'
p1249
(lp1250
sS'tmpaWAhop'
p1251
(lp1252
sS'tmpNmsJZv'
p1253
(lp1254
sS'tmpgwTdRm'
p1255
(lp1256
sS'tmpt4PQGc'
p1257
(lp1258
sS'tmpmFdMMO'
p1259
(lp1260
sS'tmpx4hopM'
p1261
(lp1262
sS'tmpFUFWr5'
p1263
(lp1264
(I164
I103
g8
tp1265
a(I263
I101
g12
tp1266
a(I76
I98
g14
tp1267
a(I164
I109
g14
tp1268
a(I253
I104
g14
tp1269
asS'tmp9r82qO'
p1270
(lp1271
(I201
I104
g8
tp1272
a(I144
I111
g8
tp1273
a(I55
I102
g8
tp1274
a(I232
I93
g12
tp1275
a(I53
I102
g14
tp1276
a(I147
I113
g14
tp1277
a(I205
I106
g14
tp1278
asS'tmpqrSee0'
p1279
(lp1280
sS'tmpf5DKg6'
p1281
(lp1282
sS'tmpGMGavZ'
p1283
(lp1284
(I57
I96
g8
tp1285
a(I203
I113
g12
tp1286
a(I60
I98
g14
tp1287
a(I198
I108
g14
tp1288
asS'tmp8PXXQR'
p1289
(lp1290
(I69
I88
g8
tp1291
a(I155
I92
g8
tp1292
a(I250
I90
g8
tp1293
a(I255
I105
g12
tp1294
a(I68
I88
g14
tp1295
a(I165
I99
g14
tp1296
a(I248
I102
g14
tp1297
asS'tmpwLj3D5'
p1298
(lp1299
sS'tmpasHgzw'
p1300
(lp1301
sS'tmpFK6QsS'
p1302
(lp1303
(I171
I104
g8
tp1304
a(I75
I87
g8
tp1305
a(I256
I97
g12
tp1306
a(I79
I98
g14
tp1307
a(I175
I113
g14
tp1308
a(I260
I103
g14
tp1309
asS'tmpvwJLuQ'
p1310
(lp1311
sS'tmp3mzMIo'
p1312
(lp1313
(I170
I120
g8
tp1314
a(I236
I119
g8
tp1315
a(I268
I103
g12
tp1316
a(I234
I115
g14
tp1317
a(I172
I112
g14
tp1318
a(I71
I111
g14
tp1319
asS'tmpSWn1Ky'
p1320
(lp1321
sS'tmpqAaHsn'
p1322
(lp1323
sS'tmpD0oQeM'
p1324
(lp1325
(I175
I114
g8
tp1326
a(I252
I102
g12
tp1327
a(I74
I103
g14
tp1328
a(I174
I116
g14
tp1329
a(I251
I112
g14
tp1330
asS'tmpyulQkl'
p1331
(lp1332
sS'tmpytkgrZ'
p1333
(lp1334
sS'tmpmYDi5z'
p1335
(lp1336
sS'tmpXrjp4Q'
p1337
(lp1338
sS'tmpLBxGpd'
p1339
(lp1340
(I83
I89
g10
tp1341
asS'tmpv1jDlU'
p1342
(lp1343
sS'tmp8R8jrQ'
p1344
(lp1345
(I83
I53
g8
tp1346
a(I177
I66
g8
tp1347
a(I181
I47
g12
tp1348
a(I85
I53
g14
tp1349
a(I179
I66
g14
tp1350
a(I246
I61
g14
tp1351
asS'tmpOdSzNe'
p1352
(lp1353
sS'tmpGZJcsU'
p1354
(lp1355
(I159
I90
g8
tp1356
a(I244
I98
g12
tp1357
a(I77
I81
g14
tp1358
a(I155
I99
g14
tp1359
a(I234
I100
g14
tp1360
asS'tmpteMJGo'
p1361
(lp1362
sS'tmpK6CQk8'
p1363
(lp1364
sS'tmpuamBH9'
p1365
(lp1366
sS'tmp79e5xo'
p1367
(lp1368
(I68
I110
g8
tp1369
a(I158
I112
g8
tp1370
a(I250
I114
g8
tp1371
a(I166
I99
g12
tp1372
a(I68
I110
g14
tp1373
a(I159
I112
g14
tp1374
a(I248
I113
g14
tp1375
asS'tmp13FM0e'
p1376
(lp1377
(I69
I90
g558
tp1378
a(I165
I100
g558
tp1379
a(I163
I98
g12
tp1380
a(I71
I95
g14
tp1381
a(I161
I97
g14
tp1382
a(I242
I103
g14
tp1383
asS'tmpbcqGyl'
p1384
(lp1385
sS'tmpvurpDY'
p1386
(lp1387
sS'tmpSfpMWQ'
p1388
(lp1389
sS'tmpF7regW'
p1390
(lp1391
(I169
I59
g8
tp1392
a(I80
I47
g8
tp1393
a(I266
I43
g12
tp1394
a(I78
I52
g14
tp1395
a(I171
I68
g14
tp1396
a(I233
I68
g14
tp1397
asS'tmp8RfwpD'
p1398
(lp1399
(I171
I110
g8
tp1400
a(I251
I97
g12
tp1401
a(I78
I103
g14
tp1402
a(I164
I109
g14
tp1403
a(I251
I108
g14
tp1404
asS'tmpuRLbB5'
p1405
(lp1406
sS'tmpitt9YW'
p1407
(lp1408
sS'tmpFbalWm'
p1409
(lp1410
(I73
I109
g8
tp1411
a(I178
I103
g12
tp1412
a(I66
I113
g14
tp1413
asS'tmpQJbvkh'
p1414
(lp1415
sS'tmp7HRQqL'
p1416
(lp1417
(I165
I98
g8
tp1418
a(I73
I91
g10
tp1419
a(I244
I103
g12
tp1420
a(I171
I107
g14
tp1421
a(I239
I96
g14
tp1422
asS'tmpZfP9Z3'
p1423
(lp1424
sS'tmpzlb9Ez'
p1425
(lp1426
sS'tmp4pNt5Q'
p1427
(lp1428
(I159
I60
g8
tp1429
a(I82
I58
g8
tp1430
a(I193
I49
g12
tp1431
a(I86
I64
g14
tp1432
a(I167
I61
g14
tp1433
a(I244
I61
g14
tp1434
asS'tmp3Q_cxq'
p1435
(lp1436
(I73
I100
g8
tp1437
a(I170
I103
g8
tp1438
a(I171
I97
g12
tp1439
a(I74
I104
g14
tp1440
a(I170
I104
g14
tp1441
a(I257
I113
g14
tp1442
asS'tmpUYvWaM'
p1443
(lp1444
sS'tmpqbNDSC'
p1445
(lp1446
sS'tmpb_28ip'
p1447
(lp1448
sS'tmp3PCsy5'
p1449
(lp1450
(I71
I82
g8
tp1451
a(I234
I105
g8
tp1452
a(I175
I100
g12
tp1453
a(I80
I90
g14
tp1454
a(I234
I99
g14
tp1455
asS'tmpPKGDma'
p1456
(lp1457
sS'tmp4noNUj'
p1458
(lp1459
(I170
I103
g8
tp1460
a(I264
I104
g12
tp1461
a(I70
I89
g14
tp1462
a(I174
I96
g14
tp1463
a(I247
I103
g14
tp1464
asS'tmpHpIR06'
p1465
(lp1466
(I167
I110
g8
tp1467
a(I61
I98
g14
tp1468
a(I161
I107
g14
tp1469
a(I249
I108
g14
tp1470
asS'tmpiUDBT0'
p1471
(lp1472
sS'tmpg3Sl2b'
p1473
(lp1474
sS'tmpRGnFM7'
p1475
(lp1476
sS'tmpTp560a'
p1477
(lp1478
sS'tmp7exFr3'
p1479
(lp1480
(I264
I100
g12
tp1481
a(I77
I96
g14
tp1482
a(I266
I95
g14
tp1483
asS'tmp5MHSQV'
p1484
(lp1485
(I66
I66
g8
tp1486
a(I255
I97
g12
tp1487
a(I71
I74
g14
tp1488
a(I227
I88
g14
tp1489
asS'tmpFIGvlb'
p1490
(lp1491
(I166
I116
g8
tp1492
a(I68
I102
g8
tp1493
a(I231
I107
g12
tp1494
a(I65
I108
g14
tp1495
a(I168
I124
g14
tp1496
asS'tmpOPWAqN'
p1497
(lp1498
sS'tmp1kXDHr'
p1499
(lp1500
(I73
I103
g558
tp1501
a(I167
I112
g558
tp1502
a(I244
I110
g558
tp1503
a(I244
I104
g12
tp1504
a(I77
I108
g14
tp1505
a(I172
I107
g14
tp1506
a(I238
I110
g14
tp1507
asS'tmpNVd6fm'
p1508
(lp1509
sS'tmpkioKJZ'
p1510
(lp1511
sS'tmp24aVLW'
p1512
(lp1513
(I170
I54
g49
tp1514
a(I258
I45
g12
tp1515
a(I85
I57
g14
tp1516
a(I173
I56
g14
tp1517
a(I231
I65
g14
tp1518
asS'tmpo972h6'
p1519
(lp1520
sS'tmp2akNBL'
p1521
(lp1522
(I66
I84
g49
tp1523
a(I278
I109
g12
tp1524
a(I75
I86
g14
tp1525
asS'tmpqKUG4W'
p1526
(lp1527
sS'tmpx6YLcS'
p1528
(lp1529
sS'tmpOodJqU'
p1530
(lp1531
sS'tmp13jbSQ'
p1532
(lp1533
(I254
I109
g12
tp1534
a(I67
I95
g14
tp1535
asS'tmpSGJ0sT'
p1536
(lp1537
sS'tmpLYkHSn'
p1538
(lp1539
sS'tmp0_G7IE'
p1540
(lp1541
(I73
I107
g556
tp1542
a(I171
I105
g556
tp1543
a(I256
I103
g12
tp1544
a(I73
I106
g14
tp1545
a(I173
I106
g14
tp1546
a(I257
I113
g14
tp1547
asS'tmpcD1aWc'
p1548
(lp1549
sS'tmp2ol3uJ'
p1550
(lp1551
(I80
I89
g8
tp1552
a(I275
I109
g12
tp1553
a(I82
I93
g14
tp1554
asS'tmpZRA0Ai'
p1555
(lp1556
sS'tmpxOlMJ3'
p1557
(lp1558
sS'tmpv4ISbu'
p1559
(lp1560
sS'tmpYQVxGC'
p1561
(lp1562
sS'tmp4o9bL0'
p1563
(lp1564
(I167
I113
g8
tp1565
a(I70
I96
g8
tp1566
a(I244
I103
g8
tp1567
a(I243
I102
g12
tp1568
a(I69
I97
g14
tp1569
a(I166
I112
g14
tp1570
a(I243
I107
g14
tp1571
asS'tmpMIEBBr'
p1572
(lp1573
sS'tmpufFQjO'
p1574
(lp1575
sS'tmplXVR7M'
p1576
(lp1577
sS'tmpUrmCCI'
p1578
(lp1579
sS'tmpO38Z30'
p1580
(lp1581
sS'tmpQkr8C1'
p1582
(lp1583
sS'tmpQIVVWQ'
p1584
(lp1585
sS'tmpgfv9xg'
p1586
(lp1587
sS'tmpV2ia3M'
p1588
(lp1589
sS'tmpTBGgrQ'
p1590
(lp1591
sS'tmpjOEuKx'
p1592
(lp1593
sS'tmpiguYqw'
p1594
(lp1595
sS'tmpQ2CIHj'
p1596
(lp1597
sS'tmpPGnEPZ'
p1598
(lp1599
sS'tmpdmfDjq'
p1600
(lp1601
sS'tmprJOYDX'
p1602
(lp1603
sS'tmp28BFvs'
p1604
(lp1605
(I70
I130
g49
tp1606
a(I160
I128
g49
tp1607
a(I236
I117
g49
tp1608
a(I173
I97
g12
tp1609
a(I70
I125
g14
tp1610
a(I163
I128
g14
tp1611
a(I235
I123
g14
tp1612
asS'tmpBCW_jW'
p1613
(lp1614
(I68
I86
g8
tp1615
a(I171
I95
g12
tp1616
a(I74
I93
g14
tp1617
asS'tmpGvCJJc'
p1618
(lp1619
(I247
I113
g8
tp1620
a(I178
I113
g8
tp1621
a(I76
I104
g14
tp1622
a(I173
I112
g14
tp1623
a(I251
I118
g14
tp1624
asS'tmpyS49ko'
p1625
(lp1626
sS'tmpemjquv'
p1627
(lp1628
sS'tmpsoUjQU'
p1629
(lp1630
sS'tmpZzSJ6O'
p1631
(lp1632
sS'tmpbc8QPq'
p1633
(lp1634
sS'tmpKDYTzG'
p1635
(lp1636
sS'tmphvXlkY'
p1637
(lp1638
sS'tmp0NSmyk'
p1639
(lp1640
(I84
I93
g556
tp1641
a(I174
I105
g556
tp1642
a(I277
I109
g12
tp1643
a(I82
I88
g14
tp1644
a(I175
I100
g14
tp1645
a(I249
I102
g14
tp1646
asS'tmpkODR3F'
p1647
(lp1648
sS'tmplmueIH'
p1649
(lp1650
sS'tmpL1QALU'
p1651
(lp1652
sS'tmpiGMBEB'
p1653
(lp1654
sS'tmpsJyEKn'
p1655
(lp1656
sS'tmpk8Aix4'
p1657
(lp1658
sS'tmpNsWw_B'
p1659
(lp1660
sS'tmprVG4PC'
p1661
(lp1662
sS'tmpGFOelr'
p1663
(lp1664
(I177
I91
g8
tp1665
a(I168
I104
g12
tp1666
a(I73
I97
g14
tp1667
a(I171
I101
g14
tp1668
a(I245
I95
g14
tp1669
asS'tmpU1f7Ug'
p1670
(lp1671
sS'tmpQLMTsH'
p1672
(lp1673
sS'tmpEdbEQH'
p1674
(lp1675
(I180
I97
g8
tp1676
a(I172
I100
g12
tp1677
a(I80
I96
g14
tp1678
a(I177
I103
g14
tp1679
a(I246
I108
g14
tp1680
asS'tmpcMnZsN'
p1681
(lp1682
sS'tmpaLu6Kx'
p1683
(lp1684
sS'tmppvvTxa'
p1685
(lp1686
sS'tmpIcOz7P'
p1687
(lp1688
(I71
I95
g14
tp1689
a(I174
I103
g14
tp1690
a(I240
I102
g14
tp1691
asS'tmpTvYBfy'
p1692
(lp1693
sS'tmpCyHOlL'
p1694
(lp1695
(I68
I107
g8
tp1696
a(I162
I107
g8
tp1697
a(I166
I96
g12
tp1698
a(I61
I104
g14
tp1699
a(I160
I110
g14
tp1700
a(I248
I114
g14
tp1701
asS'tmpsXil3l'
p1702
(lp1703
sS'tmpcLpXNz'
p1704
(lp1705
sS'tmp8SdLAC'
p1706
(lp1707
(I163
I102
g8
tp1708
a(I260
I103
g12
tp1709
a(I68
I89
g14
tp1710
a(I162
I109
g14
tp1711
a(I248
I92
g14
tp1712
asS'tmpszifKc'
p1713
(lp1714
sS'tmp0ukqvy'
p1715
(lp1716
(I158
I110
g558
tp1717
a(I161
I98
g12
tp1718
a(I64
I101
g14
tp1719
a(I160
I111
g14
tp1720
a(I243
I121
g14
tp1721
asS'tmpsFajq3'
p1722
(lp1723
sS'tmpH9RiEn'
p1724
(lp1725
(I172
I100
g8
tp1726
a(I72
I96
g8
tp1727
a(I78
I101
g14
tp1728
a(I169
I114
g14
tp1729
a(I243
I112
g14
tp1730
asS'tmpmjeO17'
p1731
(lp1732
sS'tmpi6NCNd'
p1733
(lp1734
sS'tmpBr4FNS'
p1735
(lp1736
(I166
I107
g8
tp1737
a(I258
I99
g12
tp1738
a(I74
I99
g14
tp1739
a(I168
I105
g14
tp1740
a(I244
I117
g14
tp1741
asS'tmpLZlhUU'
p1742
(lp1743
sS'tmpklJNK1'
p1744
(lp1745
sS'tmpfBR5B6'
p1746
(lp1747
sS'tmpwuM9XC'
p1748
(lp1749
sS'tmpW2_3h_'
p1750
(lp1751
sS'tmpayMJUo'
p1752
(lp1753
sS'tmpkZ03CL'
p1754
(lp1755
sS'tmpwSlhrR'
p1756
(lp1757
sS'tmpiwlPxh'
p1758
(lp1759
sS'tmpx6eAbz'
p1760
(lp1761
sS'tmprkjfdz'
p1762
(lp1763
sS'tmpWkn063'
p1764
(lp1765
sS'tmpi4oeRM'
p1766
(lp1767
sS'tmpT0VXAd'
p1768
(lp1769
sS'tmpJgy1Tk'
p1770
(lp1771
sS'tmpLGKaU6'
p1772
(lp1773
sS'tmpkgoNyL'
p1774
(lp1775
sS'tmpkGMkyu'
p1776
(lp1777
sS'tmp5rTH9O'
p1778
(lp1779
(I170
I109
g8
tp1780
a(I251
I109
g8
tp1781
a(I244
I98
g12
tp1782
a(I75
I100
g14
tp1783
a(I178
I108
g14
tp1784
a(I249
I110
g14
tp1785
asS'tmppRrQLx'
p1786
(lp1787
sS'tmpPj3PCX'
p1788
(lp1789
sS'tmpfXTn5j'
p1790
(lp1791
sS'tmpvfBBK5'
p1792
(lp1793
sS'tmpjnL1Dl'
p1794
(lp1795
sS'tmpjA_Tre'
p1796
(lp1797
sS'tmprrf_4i'
p1798
(lp1799
sS'tmpWu0d1a'
p1800
(lp1801
sS'tmpfQNM1S'
p1802
(lp1803
sS'tmpn12rCd'
p1804
(lp1805
sS'tmp6RK4te'
p1806
(lp1807
(I174
I114
g8
tp1808
a(I73
I102
g8
tp1809
a(I251
I100
g12
tp1810
a(I75
I104
g14
tp1811
a(I173
I113
g14
tp1812
a(I246
I112
g14
tp1813
asS'tmpftulin'
p1814
(lp1815
sS'tmpgSB1l3'
p1816
(lp1817
sS'tmpFH7tf1'
p1818
(lp1819
(I260
I99
g12
tp1820
a(I68
I86
g14
tp1821
a(I239
I119
g14
tp1822
asS'tmpcJlVbM'
p1823
(lp1824
sS'tmpWx3e7x'
p1825
(lp1826
sS'tmphsRynL'
p1827
(lp1828
sS'tmpSHWQ7P'
p1829
(lp1830
sS'tmp1kfwum'
p1831
(lp1832
(I169
I89
g558
tp1833
a(I84
I87
S'empty'
tp1834
a(I249
I103
g12
tp1835
a(I167
I99
g14
tp1836
a(I251
I89
g14
tp1837
asS'tmp6Q_AGL'
p1838
(lp1839
(I243
I57
g8
tp1840
a(I268
I45
g12
tp1841
a(I82
I47
g14
tp1842
a(I243
I64
g14
tp1843
asS'tmpiu8Z9R'
p1844
(lp1845
sS'tmpJMnotk'
p1846
(lp1847
sS'tmpv71Ccf'
p1848
(lp1849
sS'tmp4Prulc'
p1850
(lp1851
(I161
I117
g8
tp1852
a(I250
I103
g12
tp1853
a(I63
I109
g14
tp1854
a(I167
I120
g14
tp1855
a(I250
I107
g14
tp1856
asS'tmpnU0Tn8'
p1857
(lp1858
sS'tmpSXmdLT'
p1859
(lp1860
sS'tmpwcZgxy'
p1861
(lp1862
sS'tmpO3bUP8'
p1863
(lp1864
sS'tmpHL6MVD'
p1865
(lp1866
(I162
I104
g8
tp1867
a(I253
I103
g8
tp1868
a(I78
I99
g8
tp1869
a(I80
I99
g14
tp1870
a(I164
I110
g14
tp1871
a(I256
I107
g14
tp1872
asS'tmptFjFuS'
p1873
(lp1874
sS'tmpnTupkp'
p1875
(lp1876
sS'tmpyo3MYQ'
p1877
(lp1878
sS'tmphC7Vr7'
p1879
(lp1880
sS'tmp8EC_Oz'
p1881
(lp1882
(I249
I91
g12
tp1883
a(I61
I86
g14
tp1884
a(I240
I107
g14
tp1885
asS'tmpcYUXAQ'
p1886
(lp1887
sS'tmpaFz15V'
p1888
(lp1889
sS'tmpXiYnA8'
p1890
(lp1891
sS'tmp0se_Po'
p1892
(lp1893
(I77
I49
g556
tp1894
a(I174
I60
g556
tp1895
a(I271
I40
g12
tp1896
a(I76
I47
g14
tp1897
a(I179
I57
g14
tp1898
a(I242
I52
g14
tp1899
asS'tmpf4VLlg'
p1900
(lp1901
sS'tmp9_r9Rr'
p1902
(lp1903
(I160
I112
g8
tp1904
a(I252
I102
g12
tp1905
a(I76
I107
g14
tp1906
a(I168
I114
g14
tp1907
a(I248
I111
g14
tp1908
asS'tmpoM1Xgu'
p1909
(lp1910
sS'tmp2WVDQ8'
p1911
(lp1912
(I80
I44
g49
tp1913
a(I169
I62
g49
tp1914
a(I180
I45
g12
tp1915
a(I78
I52
g14
tp1916
a(I170
I57
g14
tp1917
a(I235
I64
g14
tp1918
asS'tmpGpqiMU'
p1919
(lp1920
(I160
I116
g8
tp1921
a(I80
I84
g8
tp1922
a(I221
I123
g8
tp1923
a(I84
I85
g14
tp1924
a(I161
I127
g14
tp1925
a(I225
I124
g14
tp1926
asS'tmpHedvZO'
p1927
(lp1928
(I73
I105
g8
tp1929
a(I169
I107
g8
tp1930
a(I80
I108
g14
tp1931
a(I173
I112
g14
tp1932
a(I256
I120
g14
tp1933
asS'tmp4ROFrQ'
p1934
(lp1935
(I165
I102
g8
tp1936
a(I250
I108
g8
tp1937
a(I161
I96
g12
tp1938
a(I74
I97
g14
tp1939
a(I163
I100
g14
tp1940
a(I246
I112
g14
tp1941
asS'tmpD0cApn'
p1942
(lp1943
(I272
I107
g12
tp1944
a(I69
I86
g14
tp1945
asS'tmpE4e6dk'
p1946
(lp1947
(I78
I92
g8
tp1948
a(I168
I101
g8
tp1949
a(I164
I97
g12
tp1950
a(I72
I97
g14
tp1951
a(I165
I97
g14
tp1952
a(I246
I110
g14
tp1953
asS'tmpTKn2GR'
p1954
(lp1955
sS'tmpFs3oWk'
p1956
(lp1957
(I83
I45
g8
tp1958
a(I172
I55
g8
tp1959
a(I243
I51
g8
tp1960
a(I271
I40
g12
tp1961
a(I78
I45
g14
tp1962
a(I172
I57
g14
tp1963
a(I249
I49
g14
tp1964
asS'tmpWT4Dkq'
p1965
(lp1966
sS'tmpYR3uTz'
p1967
(lp1968
sS'tmpVG0uz4'
p1969
(lp1970
sS'tmpIFpvBe'
p1971
(lp1972
(I73
I88
g8
tp1973
a(I72
I91
g14
tp1974
asS'tmpnCF2a9'
p1975
(lp1976
sS'tmpld7MGu'
p1977
(lp1978
sS'tmpfStvjW'
p1979
(lp1980
sS'tmpnBvlfD'
p1981
(lp1982
sS'tmpcTGMa8'
p1983
(lp1984
sS'tmpz7_5oJ'
p1985
(lp1986
sS'tmpfV_Jo0'
p1987
(lp1988
sS'tmpMiaTI9'
p1989
(lp1990
sS'tmpPfziLW'
p1991
(lp1992
sS'tmpg2wnmK'
p1993
(lp1994
sS'tmpsPcLu6'
p1995
(lp1996
sS'tmpfN32lw'
p1997
(lp1998
sS'tmpXURTJc'
p1999
(lp2000
sS'tmpGhAD_9'
p2001
(lp2002
(I166
I110
g8
tp2003
a(I253
I99
g12
tp2004
a(I72
I108
g14
tp2005
a(I169
I112
g14
tp2006
a(I248
I112
g14
tp2007
asS'tmpRXose1'
p2008
(lp2009
sS'tmp9V5whA'
p2010
(lp2011
(I71
I133
g8
tp2012
a(I166
I123
g8
tp2013
a(I239
I119
g8
tp2014
a(I180
I98
g12
tp2015
a(I77
I126
g14
tp2016
a(I167
I124
g14
tp2017
a(I237
I124
g14
tp2018
asS'tmp459wDC'
p2019
(lp2020
(I166
I110
g8
tp2021
a(I70
I95
g8
tp2022
a(I176
I100
g12
tp2023
a(I75
I97
g14
tp2024
a(I166
I109
g14
tp2025
a(I243
I116
g14
tp2026
asS'tmpaareUq'
p2027
(lp2028
sS'tmpCzLNdr'
p2029
(lp2030
(I170
I107
g8
tp2031
a(I258
I96
g12
tp2032
a(I81
I99
g14
tp2033
a(I169
I110
g14
tp2034
a(I257
I101
g14
tp2035
asS'tmpDdJmK7'
p2036
(lp2037
(I180
I110
g8
tp2038
a(I78
I112
g8
tp2039
a(I174
I100
g12
tp2040
a(I78
I102
g14
tp2041
a(I173
I108
g14
tp2042
a(I253
I110
g14
tp2043
asS'tmpjor0Jo'
p2044
(lp2045
sS'tmptCOZg7'
p2046
(lp2047
sS'tmpgcYxU3'
p2048
(lp2049
sS'tmpDo0c_9'
p2050
(lp2051
(I158
I103
g8
tp2052
a(I250
I110
g8
tp2053
a(I167
I96
g12
tp2054
a(I67
I103
g14
tp2055
a(I166
I111
g14
tp2056
a(I255
I110
g14
tp2057
asS'tmpKgSy_y'
p2058
(lp2059
sS'tmpg2mt80'
p2060
(lp2061
sS'tmpQRYW7n'
p2062
(lp2063
sS'tmp4dLdRE'
p2064
(lp2065
(I165
I107
g8
tp2066
a(I245
I109
g8
tp2067
a(I73
I99
g8
tp2068
a(I260
I102
g12
tp2069
a(I78
I100
g14
tp2070
a(I171
I107
g14
tp2071
a(I237
I110
g14
tp2072
asS'tmpfgaqAg'
p2073
(lp2074
sS'tmpcvklvG'
p2075
(lp2076
sS'tmp_SGUJA'
p2077
(lp2078
sS'tmpM2UA3G'
p2079
(lp2080
sS'tmpKoP8Rq'
p2081
(lp2082
sS'tmpjM13m_'
p2083
(lp2084
sS'tmpB8R_RT'
p2085
(lp2086
(I168
I53
g8
tp2087
a(I73
I38
g8
tp2088
a(I184
I46
g12
tp2089
a(I71
I45
g14
tp2090
a(I172
I58
g14
tp2091
a(I237
I56
g14
tp2092
asS'tmpMfI67y'
p2093
(lp2094
sS'tmpFoLF8E'
p2095
(lp2096
(I156
I106
g8
tp2097
a(I258
I98
g12
tp2098
a(I81
I95
g14
tp2099
a(I163
I102
g14
tp2100
a(I246
I100
g14
tp2101
asS'tmpNEJQhi'
p2102
(lp2103
sS'tmp7n_xEO'
p2104
(lp2105
(I180
I53
g8
tp2106
a(I86
I47
g10
tp2107
a(I265
I42
g12
tp2108
a(I177
I59
g14
tp2109
a(I242
I57
g14
tp2110
asS'tmpqXkXGU'
p2111
(lp2112
sS'tmpyNEL99'
p2113
(lp2114
sS'tmp6MLFBo'
p2115
(lp2116
(I87
I91
g8
tp2117
a(I255
I107
g12
tp2118
a(I84
I100
g14
tp2119
a(I253
I111
g14
tp2120
asS'tmptpxQvi'
p2121
(lp2122
sS'tmphkBXJl'
p2123
(lp2124
sS'tmpgtp6o2'
p2125
(lp2126
sS'tmpSfxu7y'
p2127
(lp2128
sS'tmp1mQKDg'
p2129
(lp2130
(I166
I111
g49
tp2131
a(I248
I110
g49
tp2132
a(I250
I100
g12
tp2133
a(I66
I100
g14
tp2134
a(I161
I116
g14
tp2135
a(I243
I109
g14
tp2136
asS'tmpFJz9r1'
p2137
(lp2138
(I156
I100
g8
tp2139
a(I241
I113
g8
tp2140
a(I172
I98
g12
tp2141
a(I64
I98
g14
tp2142
a(I163
I112
g14
tp2143
a(I238
I114
g14
tp2144
asS'tmproZqq7'
p2145
(lp2146
sS'tmpwW_Zz4'
p2147
(lp2148
sS'tmpxXjUhN'
p2149
(lp2150
sS'tmpDh1lyp'
p2151
(lp2152
(I163
I119
g8
tp2153
a(I175
I104
g12
tp2154
a(I63
I98
g14
tp2155
a(I167
I116
g14
tp2156
asS'tmpvOYxs3'
p2157
(lp2158
sS'tmpo_wLJ2'
p2159
(lp2160
sS'tmpNidYUf'
p2161
(lp2162
sS'tmpqcuth2'
p2163
(lp2164
sS'tmpzju25b'
p2165
(lp2166
sS'tmpxRJqP0'
p2167
(lp2168
sS'tmpMR9Twq'
p2169
(lp2170
sS'tmpG2MuUE'
p2171
(lp2172
(I257
I114
g8
tp2173
a(I253
I105
g12
tp2174
a(I107
I109
g14
tp2175
a(I248
I122
g14
tp2176
asS'tmpleMI2m'
p2177
(lp2178
sS'tmpj08Z4v'
p2179
(lp2180
sS'tmplWqpIq'
p2181
(lp2182
sS'tmpDOtln8'
p2183
(lp2184
(I260
I110
g12
tp2185
a(I67
I111
g14
tp2186
asS'tmp_ArFyI'
p2187
(lp2188
sS'tmp1P566V'
p2189
(lp2190
(I77
I98
g558
tp2191
a(I167
I99
g558
tp2192
a(I167
I100
g12
tp2193
a(I76
I96
g14
tp2194
a(I162
I98
g14
tp2195
a(I247
I96
g14
tp2196
asS'tmpTeXh32'
p2197
(lp2198
sS'tmpIDLsoM'
p2199
(lp2200
(I167
I110
g8
tp2201
a(I76
I103
g14
tp2202
a(I160
I116
g14
tp2203
a(I242
I116
g14
tp2204
asS'tmp8Iy_5i'
p2205
(lp2206
(I160
I94
g8
tp2207
a(I164
I100
g12
tp2208
a(I68
I89
g14
tp2209
a(I160
I100
g14
tp2210
a(I249
I106
g14
tp2211
asS'tmpzyqYSx'
p2212
(lp2213
sS'tmpw9HzZa'
p2214
(lp2215
sS'tmpeXrSyG'
p2216
(lp2217
sS'tmpUUCEmh'
p2218
(lp2219
sS'tmp2GFv60'
p2220
(lp2221
(I172
I115
g49
tp2222
a(I246
I102
g12
tp2223
a(I71
I103
g14
tp2224
a(I173
I118
g14
tp2225
a(I248
I110
g14
tp2226
asS'tmpdzbiSh'
p2227
(lp2228
sS'tmpoyFurG'
p2229
(lp2230
sS'tmpLO4saT'
p2231
(lp2232
(I71
I95
g10
tp2233
asS'tmpF9_6Sx'
p2234
(lp2235
(I71
I84
g8
tp2236
a(I250
I105
g12
tp2237
a(I74
I89
g14
tp2238
a(I161
I114
g14
tp2239
a(I258
I97
g14
tp2240
asS'tmpnmzVH1'
p2241
(lp2242
sS'tmp0qJ4fE'
p2243
(lp2244
(I254
I100
g12
tp2245
a(I77
I91
g14
tp2246
asS'tmpG1Zt7k'
p2247
(lp2248
(I162
I110
g8
tp2249
a(I258
I127
g8
tp2250
a(I258
I102
g12
tp2251
a(I80
I114
g14
tp2252
a(I170
I119
g14
tp2253
a(I260
I122
g14
tp2254
asS'tmppoAufN'
p2255
(lp2256
sS'tmpUak2hV'
p2257
(lp2258
sS'tmpDMBK6R'
p2259
(lp2260
(I170
I106
g8
tp2261
a(I77
I89
g8
tp2262
a(I253
I103
g12
tp2263
a(I78
I95
g14
tp2264
a(I167
I105
g14
tp2265
a(I251
I100
g14
tp2266
asS'tmpVbch8A'
p2267
(lp2268
sS'tmp9e4mW7'
p2269
(lp2270
(I169
I110
g8
tp2271
a(I245
I104
g12
tp2272
a(I75
I88
g14
tp2273
a(I158
I111
g14
tp2274
a(I251
I112
g14
tp2275
asS'tmptGDfIU'
p2276
(lp2277
sS'tmp5Ho2Op'
p2278
(lp2279
(I71
I130
g8
tp2280
a(I165
I125
g8
tp2281
a(I237
I121
g8
tp2282
a(I246
I102
g12
tp2283
a(I63
I123
g14
tp2284
a(I163
I122
g14
tp2285
a(I236
I120
g14
tp2286
asS'tmpOsmdfD'
p2287
(lp2288
sS'tmppUQGVZ'
p2289
(lp2290
sS'tmp6GrOyP'
p2291
(lp2292
(I74
I85
g8
tp2293
a(I232
I104
g8
tp2294
a(I270
I97
g12
tp2295
a(I74
I94
g14
tp2296
a(I231
I108
g14
tp2297
asS'tmpYkgmFc'
p2298
(lp2299
sS'tmp5FmMun'
p2300
(lp2301
(I167
I100
g8
tp2302
a(I71
I92
g10
tp2303
a(I250
I105
g12
tp2304
a(I172
I106
g14
tp2305
a(I241
I103
g14
tp2306
asS'tmpqymQXI'
p2307
(lp2308
sS'tmpoF_iwc'
p2309
(lp2310
sS'tmpAgkJv7'
p2311
(lp2312
(I163
I112
g8
tp2313
a(I265
I105
g12
tp2314
a(I81
I103
g14
tp2315
a(I166
I117
g14
tp2316
a(I237
I121
g14
tp2317
asS'tmp4HtLlG'
p2318
(lp2319
(I169
I99
g8
tp2320
a(I68
I93
g10
tp2321
a(I243
I100
g12
tp2322
a(I172
I108
g14
tp2323
a(I242
I104
g14
tp2324
asS'tmprrSEXZ'
p2325
(lp2326
sS'tmpFPaSV_'
p2327
(lp2328
(I67
I112
g8
tp2329
a(I164
I108
g8
tp2330
a(I243
I117
g8
tp2331
a(I169
I100
g12
tp2332
a(I65
I109
g14
tp2333
a(I165
I108
g14
tp2334
a(I242
I115
g14
tp2335
asS'tmp3xLfIu'
p2336
(lp2337
(I159
I94
g8
tp2338
a(I78
I85
g8
tp2339
a(I255
I101
g12
tp2340
a(I80
I91
g14
tp2341
a(I157
I93
g14
tp2342
a(I254
I96
g14
tp2343
asS'tmpMhzPTP'
p2344
(lp2345
sS'tmpfA82Ix'
p2346
(lp2347
sS'tmp_vKSe8'
p2348
(lp2349
sS'tmpdhTtgO'
p2350
(lp2351
sS'tmpu8dUZa'
p2352
(lp2353
sS'tmpwlHzPp'
p2354
(lp2355
sS'tmpSIcJOb'
p2356
(lp2357
sS'tmp6r3WVJ'
p2358
(lp2359
(I253
I94
g12
tp2360
a(I83
I86
g14
tp2361
asS'tmpPRQcsD'
p2362
(lp2363
sS'tmppoqkVl'
p2364
(lp2365
sS'tmpnAjRuG'
p2366
(lp2367
sS'tmpwCIGAG'
p2368
(lp2369
sS'tmpvfsPBG'
p2370
(lp2371
sS'tmpIOmQCi'
p2372
(lp2373
(I80
I88
g8
tp2374
a(I167
I110
g8
tp2375
a(I246
I103
g8
tp2376
a(I67
I98
g14
tp2377
a(I173
I112
g14
tp2378
a(I244
I109
g14
tp2379
asS'tmpY3i2lt'
p2380
(lp2381
sS'tmpugtwq0'
p2382
(lp2383
sS'tmpNeOWRS'
p2384
(lp2385
sS'tmp6L6HCT'
p2386
(lp2387
(I68
I85
g8
tp2388
a(I276
I116
g12
tp2389
a(I68
I85
g14
tp2390
asS'tmp75GZ9w'
p2391
(lp2392
(I75
I95
g8
tp2393
a(I175
I94
g8
tp2394
a(I171
I99
g12
tp2395
a(I80
I91
g14
tp2396
a(I175
I92
g14
tp2397
a(I251
I103
g14
tp2398
asS'tmpoQdV1k'
p2399
(lp2400
sS'tmplQnDCA'
p2401
(lp2402
sS'tmp1ntciM'
p2403
(lp2404
(I175
I107
g49
tp2405
a(I252
I104
g12
tp2406
a(I67
I101
g14
tp2407
a(I174
I113
g14
tp2408
a(I248
I101
g14
tp2409
asS'tmpAL7wWd'
p2410
(lp2411
(I70
I120
g8
tp2412
a(I168
I123
g8
tp2413
a(I246
I116
g8
tp2414
a(I251
I103
g12
tp2415
a(I73
I121
g14
tp2416
a(I165
I121
g14
tp2417
a(I249
I118
g14
tp2418
asS'tmpNcaiB9'
p2419
(lp2420
sS'tmp3xx2w7'
p2421
(lp2422
(I161
I106
g8
tp2423
a(I251
I108
g8
tp2424
a(I255
I103
g12
tp2425
a(I73
I100
g14
tp2426
a(I160
I110
g14
tp2427
a(I255
I108
g14
tp2428
asS'tmpr3e8hE'
p2429
(lp2430
sS'tmp5SVZj0'
p2431
(lp2432
(I75
I91
g8
tp2433
a(I270
I104
g12
tp2434
a(I69
I89
g14
tp2435
asS'tmp0yW1FF'
p2436
(lp2437
(I257
I100
g12
tp2438
a(I55
I120
g14
tp2439
a(I247
I108
g14
tp2440
asS'tmp5mxKj6'
p2441
(lp2442
(I161
I102
g8
tp2443
a(I259
I99
g12
tp2444
a(I72
I97
g14
tp2445
a(I163
I103
g14
tp2446
a(I240
I111
g14
tp2447
asS'tmp9kGdNn'
p2448
(lp2449
(I237
I122
g8
tp2450
a(I176
I101
g12
tp2451
a(I75
I100
g14
tp2452
a(I163
I109
g14
tp2453
a(I243
I122
g14
tp2454
asS'tmpyygm4a'
p2455
(lp2456
sS'tmplg68sQ'
p2457
(lp2458
sS'tmpGbQs2R'
p2459
(lp2460
(I165
I99
g8
tp2461
a(I81
I90
g10
tp2462
a(I232
I104
g12
tp2463
a(I166
I95
g14
tp2464
a(I241
I106
g14
tp2465
asS'tmpyhgX8q'
p2466
(lp2467
sS'tmpDJgFR9'
p2468
(lp2469
(I163
I98
g8
tp2470
a(I170
I98
g12
tp2471
a(I71
I94
g14
tp2472
a(I160
I104
g14
tp2473
a(I246
I104
g14
tp2474
asS'tmpQ6BWX1'
p2475
(lp2476
sS'tmp7knJEb'
p2477
(lp2478
(I71
I105
g8
tp2479
a(I161
I100
g8
tp2480
a(I249
I104
g12
tp2481
a(I73
I102
g14
tp2482
a(I157
I105
g14
tp2483
a(I237
I108
g14
tp2484
asS'tmpGDn2ql'
p2485
(lp2486
(I159
I109
g8
tp2487
a(I258
I104
g12
tp2488
a(I80
I97
g14
tp2489
a(I163
I117
g14
tp2490
a(I249
I111
g14
tp2491
asS'tmpGXn4Ud'
p2492
(lp2493
(I71
I112
g8
tp2494
a(I230
I111
g12
tp2495
a(I76
I100
g14
tp2496
asS'tmpqraQDI'
p2497
(lp2498
sS'tmpxNgMkN'
p2499
(lp2500
sS'tmpFMO4fU'
p2501
(lp2502
(I232
I104
g8
tp2503
a(I246
I103
g12
tp2504
a(I75
I104
g14
tp2505
a(I230
I105
g14
tp2506
asS'tmprGONv0'
p2507
(lp2508
sS'tmpFKHj02'
p2509
(lp2510
(I68
I86
g8
tp2511
a(I265
I101
g12
tp2512
a(I64
I83
g14
tp2513
asS'tmpXIlkev'
p2514
(lp2515
sS'tmpFFTpoh'
p2516
(lp2517
(I153
I98
g8
tp2518
a(I69
I91
g8
tp2519
a(I161
I94
g12
tp2520
a(I74
I94
g14
tp2521
a(I146
I111
g14
tp2522
a(I239
I108
g14
tp2523
asS'tmpgjudM6'
p2524
(lp2525
sS'tmpTaZ7Ar'
p2526
(lp2527
sS'tmpNJVtoJ'
p2528
(lp2529
sS'tmpP5XiDG'
p2530
(lp2531
sS'tmp2doeFT'
p2532
(lp2533
(I70
I89
S'empty'
tp2534
a(I166
I96
g8
tp2535
a(I239
I102
g12
tp2536
a(I172
I103
g14
tp2537
a(I239
I109
g14
tp2538
asS'tmp2672iA'
p2539
(lp2540
(I80
I103
g49
tp2541
a(I161
I103
g49
tp2542
a(I253
I99
g12
tp2543
a(I81
I94
g14
tp2544
a(I163
I107
g14
tp2545
a(I251
I97
g14
tp2546
asS'tmpRaGHfs'
p2547
(lp2548
sS'tmpmBji07'
p2549
(lp2550
sS'tmp0Yyr8B'
p2551
(lp2552
(I71
I125
g556
tp2553
a(I162
I122
g556
tp2554
a(I241
I122
g558
tp2555
a(I246
I99
g12
tp2556
a(I69
I123
g14
tp2557
a(I160
I122
g14
tp2558
a(I238
I119
g14
tp2559
asS'tmp7ebaG5'
p2560
(lp2561
(I231
I110
g12
tp2562
a(I68
I95
g14
tp2563
asS'tmpEsLEhR'
p2564
(lp2565
(I64
I105
g8
tp2566
a(I159
I122
g8
tp2567
a(I258
I103
g12
tp2568
a(I68
I103
g14
tp2569
a(I161
I115
g14
tp2570
a(I253
I118
g14
tp2571
asS'tmplf5uVX'
p2572
(lp2573
sS'tmppivPtv'
p2574
(lp2575
sS'tmpRAHyjr'
p2576
(lp2577
sS'tmpQMQzYW'
p2578
(lp2579
sS'tmp1J9X3G'
p2580
(lp2581
(I168
I105
g558
tp2582
a(I260
I102
g12
tp2583
a(I70
I99
g14
tp2584
a(I176
I105
g14
tp2585
a(I249
I105
g14
tp2586
asS'tmpBgp00c'
p2587
(lp2588
(I161
I105
g8
tp2589
a(I250
I102
g12
tp2590
a(I76
I96
g14
tp2591
a(I168
I109
g14
tp2592
a(I244
I106
g14
tp2593
asS'tmp3FAUiv'
p2594
(lp2595
(I169
I114
g8
tp2596
a(I70
I115
g8
tp2597
a(I244
I117
g8
tp2598
a(I251
I103
g12
tp2599
a(I75
I105
g14
tp2600
a(I167
I119
g14
tp2601
a(I244
I113
g14
tp2602
asS'tmpNGShdV'
p2603
(lp2604
sS'tmpOm78Pa'
p2605
(lp2606
sS'tmpwmrD3h'
p2607
(lp2608
sS'tmpTjSIKw'
p2609
(lp2610
sS'tmp_4vRTE'
p2611
(lp2612
sS'tmphcGNER'
p2613
(lp2614
sS'tmpqrmbQp'
p2615
(lp2616
sS'tmpvClQjD'
p2617
(lp2618
sS'tmpyyGDcg'
p2619
(lp2620
sS'tmpb_GELb'
p2621
(lp2622
sS'tmpLL9MJX'
p2623
(lp2624
sS'tmpaMuXhM'
p2625
(lp2626
sS'tmpc761zS'
p2627
(lp2628
sS'tmpcjRze6'
p2629
(lp2630
sS'tmp_fiaId'
p2631
(lp2632
sS'tmpPvGeZc'
p2633
(lp2634
sS'tmpLGkIbU'
p2635
(lp2636
sS'tmpjxJTUK'
p2637
(lp2638
sS'tmpcr5WR0'
p2639
(lp2640
sS'tmpDhoeGM'
p2641
(lp2642
(I160
I110
g8
tp2643
a(I72
I92
g8
tp2644
a(I264
I99
g12
tp2645
a(I70
I95
g14
tp2646
a(I162
I109
g14
tp2647
a(I235
I120
g14
tp2648
asS'tmpwx16Od'
p2649
(lp2650
sS'tmpM23FQI'
p2651
(lp2652
sS'tmpQcoWKK'
p2653
(lp2654
sS'tmpK04IaU'
p2655
(lp2656
sS'tmpdnQyJ8'
p2657
(lp2658
sS'tmpdd4LHZ'
p2659
(lp2660
sS'tmp8wvAi0'
p2661
(lp2662
(I174
I55
g8
tp2663
a(I75
I34
g8
tp2664
a(I238
I72
g12
tp2665
a(I81
I41
g14
tp2666
a(I176
I60
g14
tp2667
a(I255
I47
g14
tp2668
asS'tmph5KYQ6'
p2669
(lp2670
sS'tmptzk4Ue'
p2671
(lp2672
sS'tmp6uf0Au'
p2673
(lp2674
(I78
I98
g8
tp2675
a(I174
I98
g12
tp2676
a(I81
I91
g14
tp2677
asS'tmpcoKTzb'
p2678
(lp2679
sS'tmpKsdIBg'
p2680
(lp2681
sS'tmppPnaz2'
p2682
(lp2683
sS'tmpfAquvf'
p2684
(lp2685
sS'tmpcUTjt0'
p2686
(lp2687
sS'tmps_P89n'
p2688
(lp2689
sS'tmp0IIJ0A'
p2690
(lp2691
(I69
I105
S'back'
p2692
tp2693
a(I248
I115
g2692
tp2694
a(I172
I104
g558
tp2695
a(I170
I96
g12
tp2696
a(I69
I99
g14
tp2697
a(I176
I100
g14
tp2698
a(I246
I108
g14
tp2699
asS'tmpV5Q5LR'
p2700
(lp2701
sS'tmpn4a3xk'
p2702
(lp2703
sS'tmpE0O3oV'
p2704
(lp2705
(I163
I98
g8
tp2706
a(I257
I98
g12
tp2707
a(I70
I95
g14
tp2708
a(I172
I98
g14
tp2709
a(I251
I100
g14
tp2710
asS'tmpv5FfgA'
p2711
(lp2712
sS'tmpnVsoM4'
p2713
(lp2714
sS'tmpsi7gkK'
p2715
(lp2716
sS'tmpfPaROi'
p2717
(lp2718
sS'tmpe6a1lr'
p2719
(lp2720
sS'tmp8oPj9Y'
p2721
(lp2722
(I75
I106
g8
tp2723
a(I168
I112
g8
tp2724
a(I260
I102
g12
tp2725
a(I72
I113
g14
tp2726
a(I170
I117
g14
tp2727
a(I261
I114
g14
tp2728
asS'tmp3MCkBl'
p2729
(lp2730
(I165
I120
g8
tp2731
a(I237
I119
g8
tp2732
a(I267
I104
g12
tp2733
a(I64
I105
g14
tp2734
a(I166
I117
g14
tp2735
a(I242
I123
g14
tp2736
asS'tmpozBSNf'
p2737
(lp2738
sS'tmpPst32w'
p2739
(lp2740
sS'tmp44bXZx'
p2741
(lp2742
(I178
I96
g8
tp2743
a(I69
I93
g8
tp2744
a(I254
I108
g12
tp2745
a(I69
I94
g14
tp2746
a(I179
I100
g14
tp2747
a(I252
I103
g14
tp2748
asS'tmpWXqDJv'
p2749
(lp2750
sS'tmpD2Ng4w'
p2751
(lp2752
(I168
I104
g8
tp2753
a(I244
I101
g12
tp2754
a(I74
I91
g14
tp2755
a(I164
I105
g14
tp2756
a(I239
I106
g14
tp2757
asS'tmpZdyRX1'
p2758
(lp2759
sS'tmpyEjgLJ'
p2760
(lp2761
sS'tmpT_opfH'
p2762
(lp2763
s.