(dp1
S'tmp_mWhYh'
p2
(lp3
sS'tmpqzvx74'
p4
(lp5
sS'tmp75Gkuu'
p6
(lp7
(I168
I100
S'back'
p8
tp9
a(I73
I91
S'empty'
p10
tp11
a(I255
I100
S'head'
p12
tp13
a(I166
I99
S'card'
p14
tp15
a(I249
I98
g14
tp16
asS'tmp8RfwpD'
p17
(lp18
(I171
I110
g8
tp19
a(I251
I97
g12
tp20
a(I78
I103
g14
tp21
a(I164
I109
g14
tp22
a(I251
I108
g14
tp23
asS'tmpG3E_gG'
p24
(lp25
(I69
I94
g8
tp26
a(I279
I113
g12
tp27
a(I75
I98
g14
tp28
asS'tmpBoZJKg'
p29
(lp30
(I162
I108
g8
tp31
a(I258
I99
g12
tp32
a(I73
I99
g14
tp33
a(I161
I111
g14
tp34
a(I253
I110
g14
tp35
asS'tmp1kfwum'
p36
(lp37
(I169
I89
S'back'
p38
tp39
a(I84
I87
S'empty'
tp40
a(I249
I103
g12
tp41
a(I167
I99
g14
tp42
a(I251
I89
g14
tp43
asS'tmphTtImw'
p44
(lp45
sS'tmpF7regW'
p46
(lp47
(I169
I59
g8
tp48
a(I80
I47
g8
tp49
a(I266
I43
g12
tp50
a(I78
I52
g14
tp51
a(I171
I68
g14
tp52
a(I233
I68
g14
tp53
asS'tmpitt9YW'
p54
(lp55
sS'tmpV2ia3M'
p56
(lp57
sS'tmpMzVNIG'
p58
(lp59
sS'tmpBPIcTE'
p60
(lp61
(I104
I62
S'back'
p62
tp63
asS'tmp7HRQqL'
p64
(lp65
(I165
I98
g8
tp66
a(I73
I91
g10
tp67
a(I244
I103
g12
tp68
a(I171
I107
g14
tp69
a(I239
I96
g14
tp70
asS'tmpZfP9Z3'
p71
(lp72
sS'tmpblWN83'
p73
(lp74
sS'tmpl76EQs'
p75
(lp76
sS'tmpnLOLZX'
p77
(lp78
sS'tmpLPUHqH'
p79
(lp80
sS'tmpkHUqTB'
p81
(lp82
sS'tmpdKPpqS'
p83
(lp84
sS'tmpjF7YdM'
p85
(lp86
sS'tmpJtEZtu'
p87
(lp88
sS'tmpkvMxFZ'
p89
(lp90
sS'tmp_vY9NB'
p91
(lp92
sS'tmpFKRlqg'
p93
(lp94
(I179
I101
g8
tp95
a(I257
I101
g12
tp96
a(I66
I87
g14
tp97
a(I172
I102
g14
tp98
a(I247
I105
g14
tp99
asS'tmpIw_8L0'
p100
(lp101
sS'tmpNIrnmw'
p102
(lp103
(I183
I68
g62
tp104
asS'tmp4pNt5Q'
p105
(lp106
(I159
I60
g8
tp107
a(I82
I58
g8
tp108
a(I193
I49
g12
tp109
a(I86
I64
g14
tp110
a(I167
I61
g14
tp111
a(I244
I61
g14
tp112
asS'tmpOslL8O'
p113
(lp114
(I173
I55
g62
tp115
asS'tmp1zE45F'
p116
(lp117
(I229
I93
g62
tp118
a(I181
I77
g62
tp119
asS'tmp3Q_cxq'
p120
(lp121
(I73
I100
g8
tp122
a(I170
I103
g8
tp123
a(I171
I97
g12
tp124
a(I74
I104
g14
tp125
a(I170
I104
g14
tp126
a(I257
I113
g14
tp127
asS'tmp8NhmkG'
p128
(lp129
(I174
I59
g62
tp130
asS'tmpUYvWaM'
p131
(lp132
sS'tmps69nSs'
p133
(lp134
sS'tmpqbNDSC'
p135
(lp136
sS'tmp4Ci53G'
p137
(lp138
(I175
I93
g8
tp139
a(I164
I100
g12
tp140
a(I84
I89
g14
tp141
a(I167
I97
g14
tp142
a(I258
I92
g14
tp143
asS'tmpLyIHPD'
p144
(lp145
(I82
I56
g62
tp146
asS'tmpb_28ip'
p147
(lp148
sS'tmp3PCsy5'
p149
(lp150
(I71
I82
g8
tp151
a(I234
I105
g8
tp152
a(I175
I100
g12
tp153
a(I80
I90
g14
tp154
a(I234
I99
g14
tp155
asS'tmpKZVUwT'
p156
(lp157
sS'tmpPKGDma'
p158
(lp159
sS'tmpWrvlV1'
p160
(lp161
sS'tmp2niOIl'
p162
(lp163
(I172
I102
g8
tp164
a(I251
I102
g12
tp165
a(I78
I96
g14
tp166
a(I175
I115
g14
tp167
a(I257
I105
g14
tp168
asS'tmp4noNUj'
p169
(lp170
(I170
I103
g8
tp171
a(I264
I104
g12
tp172
a(I70
I89
g14
tp173
a(I174
I96
g14
tp174
a(I247
I103
g14
tp175
asS'tmpQIUCm8'
p176
(lp177
sS'tmpuT8_K_'
p178
(lp179
sS'tmpCJWjE8'
p180
(lp181
(I81
I54
g62
tp182
a(I170
I75
g62
tp183
asS'tmpiUDBT0'
p184
(lp185
sS'tmp2g76Kf'
p186
(lp187
(I163
I115
g8
tp188
a(I255
I106
g12
tp189
a(I85
I105
g14
tp190
a(I163
I122
g14
tp191
a(I253
I112
g14
tp192
asS'tmpwPaUK2'
p193
(lp194
sS'tmpFfeovW'
p195
(lp196
(I255
I101
g12
tp197
a(I72
I102
g14
tp198
asS'tmpRPF9vq'
p199
(lp200
(I172
I68
g62
tp201
asS'tmpfEz9O2'
p202
(lp203
sS'tmp9ULyge'
p204
(lp205
(I168
I123
g8
tp206
a(I163
I103
g12
tp207
a(I81
I107
g14
tp208
a(I161
I122
g14
tp209
a(I256
I117
g14
tp210
asS'tmpj626hH'
p211
(lp212
sS'tmpDQH2hf'
p213
(lp214
(I85
I49
g62
tp215
a(I183
I52
g62
tp216
asS'tmpYr_u5h'
p217
(lp218
sS'tmpcdU7ye'
p219
(lp220
sS'tmpWXqDJv'
p221
(lp222
sS'tmp90t8B3'
p223
(lp224
(I73
I109
g8
tp225
a(I166
I118
g8
tp226
a(I241
I112
g8
tp227
a(I169
I103
g12
tp228
a(I71
I100
g14
tp229
a(I165
I116
g14
tp230
a(I243
I118
g14
tp231
asS'tmpg3Sl2b'
p232
(lp233
sS'tmpKOqgbg'
p234
(lp235
(I180
I53
g62
tp236
a(I83
I44
g62
tp237
asS'tmp3W94mW'
p238
(lp239
(I170
I105
g8
tp240
a(I174
I99
g12
tp241
a(I67
I96
g14
tp242
a(I170
I103
g14
tp243
a(I237
I107
g14
tp244
asS'tmpTX21MN'
p245
(lp246
sS'tmpTp560a'
p247
(lp248
sS'tmp_cUThv'
p249
(lp250
sS'tmp5MHSQV'
p251
(lp252
(I66
I66
g8
tp253
a(I255
I97
g12
tp254
a(I71
I74
g14
tp255
a(I227
I88
g14
tp256
asS'tmpYmwss4'
p257
(lp258
sS'tmpocydkg'
p259
(lp260
sS'tmp9P0PAa'
p261
(lp262
(I79
I45
g62
tp263
a(I181
I57
g62
tp264
asS'tmpnSN5RJ'
p265
(lp266
sS'tmpf0pc2K'
p267
(lp268
sS'tmpjY3Lho'
p269
(lp270
sS'tmpeZqj6c'
p271
(lp272
sS'tmp1kXDHr'
p273
(lp274
(I73
I103
g38
tp275
a(I167
I112
g38
tp276
a(I244
I110
g38
tp277
a(I244
I104
g12
tp278
a(I77
I108
g14
tp279
a(I172
I107
g14
tp280
a(I238
I110
g14
tp281
asS'tmpPGnEPZ'
p282
(lp283
sS'tmp_SGUJA'
p284
(lp285
sS'tmpv_8lVR'
p286
(lp287
sS'tmpWIw4K2'
p288
(lp289
sS'tmpgya2u4'
p290
(lp291
sS'tmp2Maxj9'
p292
(lp293
(I162
I110
S'back'
p294
tp295
a(I256
I98
g294
tp296
a(I261
I101
g12
tp297
a(I70
I93
g14
tp298
a(I169
I115
g14
tp299
a(I249
I101
g14
tp300
asS'tmp2kL7OM'
p301
(lp302
(I185
I64
g62
tp303
asS'tmpch1mce'
p304
(lp305
sS'tmpbrYYq5'
p306
(lp307
sS'tmpUswQJw'
p308
(lp309
sS'tmpkioKJZ'
p310
(lp311
sS'tmpzlb9Ez'
p312
(lp313
sS'tmpCoda5t'
p314
(lp315
(I84
I53
g8
tp316
a(I174
I64
g8
tp317
a(I239
I54
g8
tp318
a(I177
I46
g12
tp319
a(I85
I58
g14
tp320
a(I171
I69
g14
tp321
a(I237
I62
g14
tp322
asS'tmpzFCQLY'
p323
(lp324
sS'tmp2akNBL'
p325
(lp326
(I66
I84
g294
tp327
a(I278
I109
g12
tp328
a(I75
I86
g14
tp329
asS'tmpqKUG4W'
p330
(lp331
sS'tmp4_UubO'
p332
(lp333
(I177
I69
g62
tp334
a(I77
I50
g62
tp335
asS'tmpdtwkrg'
p336
(lp337
sS'tmpx6YLcS'
p338
(lp339
sS'tmpCU6Ena'
p340
(lp341
(I93
I83
g62
tp342
a(I182
I86
g62
tp343
asS'tmpE4e6dk'
p344
(lp345
(I78
I92
g8
tp346
a(I168
I101
g8
tp347
a(I164
I97
g12
tp348
a(I72
I97
g14
tp349
a(I165
I97
g14
tp350
a(I246
I110
g14
tp351
asS'tmpOodJqU'
p352
(lp353
sS'tmpeS8aFS'
p354
(lp355
sS'tmp13jbSQ'
p356
(lp357
(I254
I109
g12
tp358
a(I67
I95
g14
tp359
asS'tmpLpDat_'
p360
(lp361
sS'tmpMm15uW'
p362
(lp363
(I183
I96
g62
tp364
asS'tmppumegR'
p365
(lp366
sS'tmpRqzSXT'
p367
(lp368
sS'tmpz1LXPE'
p369
(lp370
sS'tmpCXpO_W'
p371
(lp372
(I78
I57
g62
tp373
a(I179
I70
g62
tp374
asS'tmpSGJ0sT'
p375
(lp376
sS'tmpuUIEup'
p377
(lp378
sS'tmpuKqWHM'
p379
(lp380
sS'tmp0ZiylJ'
p381
(lp382
(I172
I59
g62
tp383
asS'tmp3eLr4q'
p384
(lp385
(I153
I117
g8
tp386
a(I68
I101
g8
tp387
a(I257
I101
g12
tp388
a(I147
I115
g14
tp389
a(I57
I102
g14
tp390
a(I249
I112
g14
tp391
asS'tmpCVYz5h'
p392
(lp393
(I160
I110
g8
tp394
a(I260
I98
g8
tp395
a(I71
I104
g8
tp396
a(I258
I96
g12
tp397
a(I78
I103
g14
tp398
a(I167
I114
g14
tp399
a(I255
I104
g14
tp400
asS'tmpJovJCF'
p401
(lp402
sS'tmp0_G7IE'
p403
(lp404
(I73
I107
S'back'
p405
tp406
a(I171
I105
g405
tp407
a(I256
I103
g12
tp408
a(I73
I106
g14
tp409
a(I173
I106
g14
tp410
a(I257
I113
g14
tp411
asS'tmpAa8eo6'
p412
(lp413
(I177
I64
g62
tp414
a(I67
I71
g62
tp415
asS'tmpcD1aWc'
p416
(lp417
sS'tmp48GC7M'
p418
(lp419
(I172
I76
g62
tp420
asS'tmpveWoDy'
p421
(lp422
sS'tmpIVyw6P'
p423
(lp424
(I78
I65
g62
tp425
a(I158
I77
g62
tp426
asS'tmp9mIFar'
p427
(lp428
(I72
I106
g8
tp429
a(I169
I121
g8
tp430
a(I176
I97
g12
tp431
a(I73
I112
g14
tp432
a(I167
I123
g14
tp433
a(I257
I115
g14
tp434
asS'tmpqeKq96'
p435
(lp436
sS'tmpZQFYx4'
p437
(lp438
sS'tmpGrEwlR'
p439
(lp440
(I175
I51
g62
tp441
asS'tmpCjp_1x'
p442
(lp443
(I89
I67
g62
tp444
a(I174
I89
g62
tp445
asS'tmpBZXy8X'
p446
(lp447
(I161
I116
g8
tp448
a(I258
I114
g8
tp449
a(I261
I98
g12
tp450
a(I69
I111
g14
tp451
a(I156
I120
g14
tp452
a(I254
I121
g14
tp453
asS'tmpZRA0Ai'
p454
(lp455
sS'tmpMAGgZq'
p456
(lp457
sS'tmplmnQDb'
p458
(lp459
sS'tmpKq1jYO'
p460
(lp461
sS'tmpvClQjD'
p462
(lp463
sS'tmpv4ISbu'
p464
(lp465
sS'tmpYQVxGC'
p466
(lp467
sS'tmpUKzBtg'
p468
(lp469
sS'tmps6iC9U'
p470
(lp471
sS'tmpgcQsdb'
p472
(lp473
sS'tmp6Bx1rr'
p474
(lp475
(I176
I67
g62
tp476
asS'tmp4o9bL0'
p477
(lp478
(I167
I113
g8
tp479
a(I70
I96
g8
tp480
a(I244
I103
g8
tp481
a(I243
I102
g12
tp482
a(I69
I97
g14
tp483
a(I166
I112
g14
tp484
a(I243
I107
g14
tp485
asS'tmpsC3lfN'
p486
(lp487
sS'tmpJxuQYx'
p488
(lp489
sS'tmpAhzlGr'
p490
(lp491
(I162
I117
g8
tp492
a(I258
I100
g12
tp493
a(I71
I102
g14
tp494
a(I159
I116
g14
tp495
a(I248
I120
g14
tp496
asS'tmp57yR2b'
p497
(lp498
(I164
I123
g8
tp499
a(I251
I112
g8
tp500
a(I258
I97
g12
tp501
a(I68
I104
g14
tp502
a(I159
I112
g14
tp503
a(I255
I116
g14
tp504
asS'tmpUNpFhr'
p505
(lp506
sS'tmp6Qp1Cr'
p507
(lp508
(I180
I61
g62
tp509
asS'tmpMIEBBr'
p510
(lp511
sS'tmpufFQjO'
p512
(lp513
sS'tmpfEf17t'
p514
(lp515
sS'tmplXVR7M'
p516
(lp517
sS'tmpfi1RXE'
p518
(lp519
sS'tmpUrmCCI'
p520
(lp521
sS'tmpFQEPMI'
p522
(lp523
(I75
I99
g8
tp524
a(I180
I104
g8
tp525
a(I184
I94
g12
tp526
a(I81
I101
g14
tp527
a(I180
I106
g14
tp528
a(I248
I112
g14
tp529
asS'tmp2McwTA'
p530
(lp531
(I172
I103
g294
tp532
a(I251
I100
g12
tp533
a(I75
I90
g14
tp534
a(I168
I109
g14
tp535
a(I246
I96
g14
tp536
asS'tmplcPevQ'
p537
(lp538
sS'tmpQkr8C1'
p539
(lp540
sS'tmpKoP8Rq'
p541
(lp542
sS'tmp7PBsNM'
p543
(lp544
(I81
I40
g62
tp545
a(I177
I52
g62
tp546
asS'tmpCdqEod'
p547
(lp548
(I184
I93
g62
tp549
asS'tmp_zLx74'
p550
(lp551
sS'tmpKM7FWy'
p552
(lp553
(I80
I46
g62
tp554
a(I180
I52
g62
tp555
asS'tmp1ihnBF'
p556
(lp557
(I171
I62
g62
tp558
asS'tmpLd37Zt'
p559
(lp560
sS'tmpS0tj5y'
p561
(lp562
(I168
I41
g62
tp563
asS'tmp4Sq7Ro'
p564
(lp565
sS'tmpgfv9xg'
p566
(lp567
sS'tmpdhArYk'
p568
(lp569
sS'tmp3uQ4rw'
p570
(lp571
(I159
I103
g8
tp572
a(I257
I99
g12
tp573
a(I77
I99
g14
tp574
a(I169
I103
g14
tp575
a(I259
I101
g14
tp576
asS'tmpdNwoVt'
p577
(lp578
sS'tmppQJHpa'
p579
(lp580
sS'tmpjb2hU2'
p581
(lp582
sS'tmpXX7l4l'
p583
(lp584
sS'tmpjOEuKx'
p585
(lp586
sS'tmparvXWm'
p587
(lp588
sS'tmpgrQ82j'
p589
(lp590
sS'tmpQ2CIHj'
p591
(lp592
sS'tmpwPU5pE'
p593
(lp594
sS'tmpakw0YC'
p595
(lp596
sS'tmpi1BN7y'
p597
(lp598
sS'tmp1mjDg3'
p599
(lp600
(I67
I115
g294
tp601
a(I163
I109
g294
tp602
a(I246
I116
g294
tp603
a(I248
I102
g12
tp604
a(I66
I103
g14
tp605
a(I160
I114
g14
tp606
a(I241
I109
g14
tp607
asS'tmpQDCZxD'
p608
(lp609
sS'tmp7GP54f'
p610
(lp611
(I167
I105
g8
tp612
a(I247
I103
g12
tp613
a(I66
I92
g14
tp614
a(I165
I102
g14
tp615
a(I242
I96
g14
tp616
asS'tmprJOYDX'
p617
(lp618
sS'tmp3sUrmM'
p619
(lp620
(I172
I42
g62
tp621
a(I95
I41
g62
tp622
a(I4
I29
g62
tp623
asS'tmpJF9oMM'
p624
(lp625
sS'tmp0NSmyk'
p626
(lp627
(I84
I93
g405
tp628
a(I174
I105
g405
tp629
a(I277
I109
g12
tp630
a(I82
I88
g14
tp631
a(I175
I100
g14
tp632
a(I249
I102
g14
tp633
asS'tmp1u20JS'
p634
(lp635
(I75
I88
g294
tp636
a(I259
I96
g12
tp637
a(I76
I95
g14
tp638
asS'tmpBAhl8y'
p639
(lp640
(I59
I105
g8
tp641
a(I261
I102
g12
tp642
a(I52
I111
g14
tp643
a(I131
I124
g14
tp644
a(I245
I121
g14
tp645
asS'tmpaMuXhM'
p646
(lp647
sS'tmpfCBG13'
p648
(lp649
sS'tmpGvCJJc'
p650
(lp651
(I247
I113
g8
tp652
a(I178
I113
g8
tp653
a(I76
I104
g14
tp654
a(I173
I112
g14
tp655
a(I251
I118
g14
tp656
asS'tmp_XNyQF'
p657
(lp658
sS'tmpDmQAzQ'
p659
(lp660
(I178
I66
g62
tp661
a(I81
I49
g62
tp662
asS'tmpiGUzAP'
p663
(lp664
sS'tmpyS49ko'
p665
(lp666
sS'tmpemjquv'
p667
(lp668
sS'tmpwIv3es'
p669
(lp670
sS'tmpZzSJ6O'
p671
(lp672
sS'tmpgSB1l3'
p673
(lp674
sS'tmpLMfUAy'
p675
(lp676
(I174
I89
g62
tp677
a(I92
I68
g62
tp678
asS'tmpbc8QPq'
p679
(lp680
sS'tmpuN_Pxv'
p681
(lp682
sS'tmpKDYTzG'
p683
(lp684
sS'tmp3SP0z9'
p685
(lp686
(I72
I93
g8
tp687
a(I156
I96
g8
tp688
a(I255
I104
g12
tp689
a(I75
I93
g14
tp690
a(I158
I103
g14
tp691
a(I255
I98
g14
tp692
asS'tmpiguYqw'
p693
(lp694
sS'tmpS_32Hk'
p695
(lp696
sS'tmpHnhxYi'
p697
(lp698
(I77
I103
g8
tp699
a(I161
I72
g8
tp700
a(I77
I103
g14
tp701
a(I162
I73
g14
tp702
a(I255
I105
g14
tp703
asS'tmpBCW_jW'
p704
(lp705
(I68
I86
g8
tp706
a(I171
I95
g12
tp707
a(I74
I93
g14
tp708
asS'tmpkODR3F'
p709
(lp710
sS'tmpD3ckej'
p711
(lp712
(I167
I105
g8
tp713
a(I248
I105
g12
tp714
a(I65
I96
g14
tp715
a(I171
I109
g14
tp716
a(I244
I109
g14
tp717
asS'tmpL1QALU'
p718
(lp719
sS'tmpYPSkej'
p720
(lp721
sS'tmpTIp6UU'
p722
(lp723
(I80
I71
g62
tp724
a(I177
I61
g62
tp725
asS'tmpiGMBEB'
p726
(lp727
sS'tmpU6Kxn0'
p728
(lp729
sS'tmpvtAKs8'
p730
(lp731
sS'tmpsJyEKn'
p732
(lp733
sS'tmpOyT_0p'
p734
(lp735
sS'tmpQ_aIRt'
p736
(lp737
sS'tmpok5sgv'
p738
(lp739
sS'tmpy8lOMy'
p740
(lp741
sS'tmpk8Aix4'
p742
(lp743
sS'tmpNsWw_B'
p744
(lp745
sS'tmpsRBdLB'
p746
(lp747
sS'tmpTBeDkD'
p748
(lp749
(I78
I64
g62
tp750
a(I181
I72
g62
tp751
asS'tmpmjeO17'
p752
(lp753
sS'tmpVri5YA'
p754
(lp755
sS'tmpOhR2PY'
p756
(lp757
(I179
I55
g62
tp758
asS'tmpK76YZ6'
p759
(lp760
(I81
I54
g62
tp761
asS'tmp0sOfR1'
p762
(lp763
(I68
I69
g62
tp764
a(I151
I74
g62
tp765
asS'tmprjzFlx'
p766
(lp767
sS'tmpGFOelr'
p768
(lp769
(I177
I91
g8
tp770
a(I168
I104
g12
tp771
a(I73
I97
g14
tp772
a(I171
I101
g14
tp773
a(I245
I95
g14
tp774
asS'tmprkjfdz'
p775
(lp776
sS'tmpF9JkvP'
p777
(lp778
(I80
I99
g8
tp779
a(I184
I107
g8
tp780
a(I185
I98
g12
tp781
a(I83
I94
g14
tp782
a(I179
I105
g14
tp783
a(I251
I107
g14
tp784
asS'tmp2I5ihj'
p785
(lp786
(I89
I56
g62
tp787
a(I179
I58
g62
tp788
asS'tmpDgxHnC'
p789
(lp790
(I267
I44
g12
tp791
a(I78
I54
g14
tp792
a(I241
I61
g14
tp793
asS'tmpGp4JMC'
p794
(lp795
(I78
I48
g62
tp796
a(I170
I63
g62
tp797
asS'tmpQLMTsH'
p798
(lp799
sS'tmpAxebAw'
p800
(lp801
(I167
I111
g8
tp802
a(I248
I102
g12
tp803
a(I73
I98
g14
tp804
a(I174
I116
g14
tp805
a(I252
I116
g14
tp806
asS'tmpcMnZsN'
p807
(lp808
sS'tmpj0MCSZ'
p809
(lp810
sS'tmp6SuccW'
p811
(lp812
(I170
I102
g8
tp813
a(I245
I102
g12
tp814
a(I80
I88
g14
tp815
a(I173
I105
g14
tp816
a(I241
I107
g14
tp817
asS'tmpRU3F_t'
p818
(lp819
sS'tmptBBMpJ'
p820
(lp821
sS'tmp5bfkvZ'
p822
(lp823
sS'tmppvvTxa'
p824
(lp825
sS'tmpFbalWm'
p826
(lp827
(I73
I109
g8
tp828
a(I178
I103
g12
tp829
a(I66
I113
g14
tp830
asS'tmphsRynL'
p831
(lp832
sS'tmprDBkOr'
p833
(lp834
sS'tmpOwZ9mY'
p835
(lp836
sS'tmprvTZEm'
p837
(lp838
sS'tmpZATvas'
p839
(lp840
sS'tmpGF4m1J'
p841
(lp842
(I169
I112
g8
tp843
a(I248
I111
g8
tp844
a(I246
I100
g12
tp845
a(I70
I103
g14
tp846
a(I165
I112
g14
tp847
a(I246
I112
g14
tp848
asS'tmpHfGqoF'
p849
(lp850
(I115
I79
g8
tp851
a(I118
I83
g14
tp852
asS'tmpIcOz7P'
p853
(lp854
(I71
I95
g14
tp855
a(I174
I103
g14
tp856
a(I240
I102
g14
tp857
asS'tmpTvYBfy'
p858
(lp859
sS'tmpCyHOlL'
p860
(lp861
(I68
I107
g8
tp862
a(I162
I107
g8
tp863
a(I166
I96
g12
tp864
a(I61
I104
g14
tp865
a(I160
I110
g14
tp866
a(I248
I114
g14
tp867
asS'tmpiLENkY'
p868
(lp869
sS'tmp9CVCPF'
p870
(lp871
(I153
I96
g8
tp872
a(I69
I86
g8
tp873
a(I259
I102
g12
tp874
a(I66
I92
g14
tp875
a(I159
I101
g14
tp876
a(I248
I96
g14
tp877
asS'tmpcLpXNz'
p878
(lp879
sS'tmpGOOZma'
p880
(lp881
(I78
I97
g8
tp882
a(I176
I114
g8
tp883
a(I245
I104
g12
tp884
a(I78
I100
g14
tp885
a(I175
I112
g14
tp886
a(I243
I111
g14
tp887
asS'tmp44XLfp'
p888
(lp889
(I176
I81
g62
tp890
asS'tmp8SdLAC'
p891
(lp892
(I163
I102
g8
tp893
a(I260
I103
g12
tp894
a(I68
I89
g14
tp895
a(I162
I109
g14
tp896
a(I248
I92
g14
tp897
asS'tmpkrXD5D'
p898
(lp899
sS'tmp4NhALY'
p900
(lp901
(I161
I93
g8
tp902
a(I170
I98
g12
tp903
a(I76
I82
g14
tp904
a(I163
I98
g14
tp905
a(I251
I107
g14
tp906
asS'tmp7I5NGr'
p907
(lp908
(I161
I114
g8
tp909
a(I66
I98
g8
tp910
a(I262
I102
g12
tp911
a(I68
I106
g14
tp912
a(I156
I118
g14
tp913
a(I252
I109
g14
tp914
asS'tmp4aOLHj'
p915
(lp916
(I183
I56
g62
tp917
asS'tmpjnHDLc'
p918
(lp919
sS'tmpk6KLr0'
p920
(lp921
sS'tmpFGqKLa'
p922
(lp923
(I82
I93
g8
tp924
a(I177
I112
g8
tp925
a(I248
I102
g12
tp926
a(I75
I98
g14
tp927
a(I172
I103
g14
tp928
a(I247
I112
g14
tp929
asS'tmpbP0WzS'
p930
(lp931
sS'tmp0ukqvy'
p932
(lp933
(I158
I110
g38
tp934
a(I161
I98
g12
tp935
a(I64
I101
g14
tp936
a(I160
I111
g14
tp937
a(I243
I121
g14
tp938
asS'tmplCMhp3'
p939
(lp940
sS'tmpPY921I'
p941
(lp942
sS'tmpEhF2WY'
p943
(lp944
(I168
I70
g62
tp945
asS'tmphbqMMU'
p946
(lp947
sS'tmpeZDP7N'
p948
(lp949
sS'tmpIUT7Ca'
p950
(lp951
(I169
I99
g8
tp952
a(I72
I91
g10
tp953
a(I172
I98
g14
tp954
a(I249
I103
g14
tp955
asS'tmpDM0_K9'
p956
(lp957
(I163
I98
g8
tp958
a(I83
I89
g8
tp959
a(I254
I102
g12
tp960
a(I75
I91
g14
tp961
a(I162
I101
g14
tp962
a(I254
I93
g14
tp963
asS'tmpYJrnmR'
p964
(lp965
sS'tmpyo_s8R'
p966
(lp967
sS'tmpHpIR06'
p968
(lp969
(I167
I110
g8
tp970
a(I61
I98
g14
tp971
a(I161
I107
g14
tp972
a(I249
I108
g14
tp973
asS'tmpH9RiEn'
p974
(lp975
(I172
I100
g8
tp976
a(I72
I96
g8
tp977
a(I78
I101
g14
tp978
a(I169
I114
g14
tp979
a(I243
I112
g14
tp980
asS'tmpBiCque'
p981
(lp982
(I159
I106
g8
tp983
a(I77
I99
g8
tp984
a(I259
I99
g12
tp985
a(I80
I94
g14
tp986
a(I159
I110
g14
tp987
a(I254
I111
g14
tp988
asS'tmpgtp6o2'
p989
(lp990
sS'tmpi6NCNd'
p991
(lp992
sS'tmpcNo3f0'
p993
(lp994
sS'tmpjZH6B0'
p995
(lp996
sS'tmpzG0JVw'
p997
(lp998
sS'tmpe208Ee'
p999
(lp1000
sS'tmpt1gHNK'
p1001
(lp1002
sS'tmplSkS8i'
p1003
(lp1004
sS'tmpV5DrmN'
p1005
(lp1006
sS'tmpWA6Pir'
p1007
(lp1008
sS'tmpjzAtZI'
p1009
(lp1010
sS'tmpRLQGv9'
p1011
(lp1012
(I84
I42
g62
tp1013
a(I174
I53
g62
tp1014
asS'tmps40jB1'
p1015
(lp1016
sS'tmpklJNK1'
p1017
(lp1018
sS'tmpfBR5B6'
p1019
(lp1020
sS'tmpNRRbNz'
p1021
(lp1022
sS'tmpwuM9XC'
p1023
(lp1024
sS'tmpW2_3h_'
p1025
(lp1026
sS'tmpayMJUo'
p1027
(lp1028
sS'tmp5GDZqq'
p1029
(lp1030
(I168
I119
g8
tp1031
a(I70
I108
g8
tp1032
a(I248
I116
g8
tp1033
a(I250
I105
g12
tp1034
a(I74
I111
g14
tp1035
a(I170
I121
g14
tp1036
a(I248
I114
g14
tp1037
asS'tmpJMnotk'
p1038
(lp1039
sS'tmpjQHWlH'
p1040
(lp1041
sS'tmpkZ03CL'
p1042
(lp1043
sS'tmps96HdO'
p1044
(lp1045
sS'tmpwSlhrR'
p1046
(lp1047
sS'tmpPzS0hk'
p1048
(lp1049
(I81
I48
g62
tp1050
a(I166
I52
g62
tp1051
asS'tmpx6eAbz'
p1052
(lp1053
sS'tmpU1f7Ug'
p1054
(lp1055
sS'tmpXsH1io'
p1056
(lp1057
sS'tmpSNiiCD'
p1058
(lp1059
sS'tmpUWS4Tt'
p1060
(lp1061
sS'tmpi4oeRM'
p1062
(lp1063
sS'tmppI2I8H'
p1064
(lp1065
sS'tmptLhUpm'
p1066
(lp1067
sS'tmpT0VXAd'
p1068
(lp1069
sS'tmpcoKTzb'
p1070
(lp1071
sS'tmpL2t9RP'
p1072
(lp1073
(I190
I70
g62
tp1074
a(I82
I57
g62
tp1075
asS'tmpBbmbt0'
p1076
(lp1077
(I95
I71
g62
tp1078
a(I207
I68
g62
tp1079
asS'tmp_WK20C'
p1080
(lp1081
sS'tmpJgy1Tk'
p1082
(lp1083
sS'tmpLGKaU6'
p1084
(lp1085
sS'tmpW0IO0H'
p1086
(lp1087
sS'tmpZ5FAXb'
p1088
(lp1089
sS'tmpudaX49'
p1090
(lp1091
sS'tmpkgoNyL'
p1092
(lp1093
sS'tmpkGMkyu'
p1094
(lp1095
sS'tmp5rTH9O'
p1096
(lp1097
(I170
I109
g8
tp1098
a(I251
I109
g8
tp1099
a(I244
I98
g12
tp1100
a(I75
I100
g14
tp1101
a(I178
I108
g14
tp1102
a(I249
I110
g14
tp1103
asS'tmpXBbTdn'
p1104
(lp1105
(I170
I63
g62
tp1106
asS'tmpD0fWDE'
p1107
(lp1108
(I75
I108
g8
tp1109
a(I167
I115
g8
tp1110
a(I234
I111
g8
tp1111
a(I255
I103
g12
tp1112
a(I73
I107
g14
tp1113
a(I169
I119
g14
tp1114
a(I234
I118
g14
tp1115
asS'tmppRrQLx'
p1116
(lp1117
sS'tmpPj3PCX'
p1118
(lp1119
sS'tmpEEJCM_'
p1120
(lp1121
(I98
I74
g62
tp1122
a(I186
I97
g62
tp1123
asS'tmprtKj3p'
p1124
(lp1125
sS'tmpIO8ola'
p1126
(lp1127
(I84
I59
g62
tp1128
a(I186
I63
g62
tp1129
asS'tmp2Pa0WU'
p1130
(lp1131
(I77
I92
g294
tp1132
a(I174
I112
g294
tp1133
a(I254
I111
g294
tp1134
a(I246
I99
g12
tp1135
a(I82
I99
g14
tp1136
a(I177
I103
g14
tp1137
a(I246
I112
g14
tp1138
asS'tmpKFhiXL'
p1139
(lp1140
(I83
I59
g62
tp1141
a(I184
I70
g62
tp1142
asS'tmplVxlLY'
p1143
(lp1144
sS'tmpBQnaC5'
p1145
(lp1146
(I67
I98
g8
tp1147
a(I221
I105
g12
tp1148
a(I78
I100
g14
tp1149
asS'tmpfXTn5j'
p1150
(lp1151
sS'tmpirDmrM'
p1152
(lp1153
sS'tmptPNI87'
p1154
(lp1155
sS'tmpvfBBK5'
p1156
(lp1157
sS'tmp0pzufr'
p1158
(lp1159
(I80
I93
g405
tp1160
a(I183
I105
g38
tp1161
a(I171
I100
g12
tp1162
a(I251
I102
g14
tp1163
a(I181
I106
g14
tp1164
a(I77
I94
g14
tp1165
asS'tmpGsJcPp'
p1166
(lp1167
(I175
I63
g62
tp1168
asS'tmpjUbM5Z'
p1169
(lp1170
sS'tmpCzLNdr'
p1171
(lp1172
(I170
I107
g8
tp1173
a(I258
I96
g12
tp1174
a(I81
I99
g14
tp1175
a(I169
I110
g14
tp1176
a(I257
I101
g14
tp1177
asS'tmpjA_Tre'
p1178
(lp1179
sS'tmpD0_pOw'
p1180
(lp1181
(I83
I46
g8
tp1182
a(I173
I57
g8
tp1183
a(I233
I59
g8
tp1184
a(I256
I44
g12
tp1185
a(I78
I56
g14
tp1186
a(I172
I64
g14
tp1187
a(I231
I56
g14
tp1188
asS'tmpYOGiyi'
p1189
(lp1190
sS'tmprrf_4i'
p1191
(lp1192
sS'tmpMdZvJf'
p1193
(lp1194
sS'tmpnTCwaK'
p1195
(lp1196
sS'tmpWu0d1a'
p1197
(lp1198
sS'tmp8Os9Wa'
p1199
(lp1200
(I176
I56
g62
tp1201
a(I85
I45
g62
tp1202
asS'tmpfQNM1S'
p1203
(lp1204
sS'tmpcr5WR0'
p1205
(lp1206
sS'tmpIXSxUG'
p1207
(lp1208
(I82
I122
g14
tp1209
a(I167
I122
g14
tp1210
a(I233
I121
g14
tp1211
asS'tmpKRoUG7'
p1212
(lp1213
(I194
I73
g62
tp1214
asS'tmpn12rCd'
p1215
(lp1216
sS'tmp6RK4te'
p1217
(lp1218
(I174
I114
g8
tp1219
a(I73
I102
g8
tp1220
a(I251
I100
g12
tp1221
a(I75
I104
g14
tp1222
a(I173
I113
g14
tp1223
a(I246
I112
g14
tp1224
asS'tmpNKpXCZ'
p1225
(lp1226
sS'tmp7CCut3'
p1227
(lp1228
(I265
I95
g8
tp1229
a(I274
I94
g12
tp1230
a(I76
I94
g14
tp1231
a(I262
I100
g14
tp1232
asS'tmpftulin'
p1233
(lp1234
sS'tmpsJs5Ev'
p1235
(lp1236
sS'tmpk8oRQl'
p1237
(lp1238
sS'tmpwA4oMB'
p1239
(lp1240
sS'tmpLQ5Le5'
p1241
(lp1242
sS'tmpSEESK6'
p1243
(lp1244
sS'tmp0IIJ0A'
p1245
(lp1246
(I69
I105
S'back'
p1247
tp1248
a(I248
I115
g1247
tp1249
a(I172
I104
g38
tp1250
a(I170
I96
g12
tp1251
a(I69
I99
g14
tp1252
a(I176
I100
g14
tp1253
a(I246
I108
g14
tp1254
asS'tmprN3TaK'
p1255
(lp1256
sS'tmp_3KoM5'
p1257
(lp1258
sS'tmpzT0RKv'
p1259
(lp1260
sS'tmp5oTvNo'
p1261
(lp1262
(I161
I102
g8
tp1263
a(I74
I108
g8
tp1264
a(I260
I102
g12
tp1265
a(I73
I110
g14
tp1266
a(I167
I112
g14
tp1267
a(I244
I120
g14
tp1268
asS'tmpCK_P6c'
p1269
(lp1270
(I164
I76
g12
tp1271
a(I148
I79
g14
tp1272
asS'tmpWx3e7x'
p1273
(lp1274
sS'tmppauaMR'
p1275
(lp1276
sS'tmpm50WZl'
p1277
(lp1278
sS'tmpSHWQ7P'
p1279
(lp1280
sS'tmpg2mnTs'
p1281
(lp1282
sS'tmp6Q_AGL'
p1283
(lp1284
(I243
I57
g8
tp1285
a(I268
I45
g12
tp1286
a(I82
I47
g14
tp1287
a(I243
I64
g14
tp1288
asS'tmpaLu6Kx'
p1289
(lp1290
sS'tmpiu8Z9R'
p1291
(lp1292
sS'tmpSyJsTj'
p1293
(lp1294
sS'tmpDhG6TB'
p1295
(lp1296
(I77
I47
g62
tp1297
a(I173
I61
g62
tp1298
asS'tmpzVS2sx'
p1299
(lp1300
sS'tmpq_YlOm'
p1301
(lp1302
sS'tmpfbvRpq'
p1303
(lp1304
sS'tmpv71Ccf'
p1305
(lp1306
sS'tmpnTupkp'
p1307
(lp1308
sS'tmpYurRyb'
p1309
(lp1310
sS'tmpxh81Om'
p1311
(lp1312
sS'tmpSXmdLT'
p1313
(lp1314
sS'tmp8foduK'
p1315
(lp1316
(I162
I121
g8
tp1317
a(I250
I103
g12
tp1318
a(I77
I111
g14
tp1319
a(I161
I116
g14
tp1320
a(I231
I120
g14
tp1321
asS'tmp2g69Kj'
p1322
(lp1323
(I166
I98
g8
tp1324
a(I70
I89
g10
tp1325
a(I239
I102
g12
tp1326
a(I161
I99
g14
tp1327
a(I241
I102
g14
tp1328
asS'tmpwcZgxy'
p1329
(lp1330
sS'tmp8kehDp'
p1331
(lp1332
(I164
I109
g8
tp1333
a(I80
I89
g8
tp1334
a(I253
I103
g12
tp1335
a(I84
I96
g14
tp1336
a(I161
I110
g14
tp1337
a(I260
I106
g14
tp1338
asS'tmplQnDCA'
p1339
(lp1340
sS'tmpO3bUP8'
p1341
(lp1342
sS'tmpM9N0wz'
p1343
(lp1344
sS'tmpHL6MVD'
p1345
(lp1346
(I162
I104
g8
tp1347
a(I253
I103
g8
tp1348
a(I78
I99
g8
tp1349
a(I80
I99
g14
tp1350
a(I164
I110
g14
tp1351
a(I256
I107
g14
tp1352
asS'tmptFjFuS'
p1353
(lp1354
sS'tmpMUkGTx'
p1355
(lp1356
sS'tmpSnOFMC'
p1357
(lp1358
(I170
I63
g62
tp1359
asS'tmpfgaqAg'
p1360
(lp1361
sS'tmp2kZ5bu'
p1362
(lp1363
(I158
I110
g8
tp1364
a(I255
I114
g8
tp1365
a(I258
I101
g12
tp1366
a(I64
I101
g14
tp1367
a(I158
I112
g14
tp1368
a(I250
I110
g14
tp1369
asS'tmp_ruJMv'
p1370
(lp1371
(I228
I90
S'back'
p1372
tp1373
asS'tmpQG9BeO'
p1374
(lp1375
sS'tmpyo3MYQ'
p1376
(lp1377
sS'tmpCNWh5q'
p1378
(lp1379
sS'tmphC7Vr7'
p1380
(lp1381
sS'tmp4JLrpB'
p1382
(lp1383
(I271
I103
g12
tp1384
a(I73
I94
g14
tp1385
a(I241
I112
g14
tp1386
asS'tmp8EC_Oz'
p1387
(lp1388
(I249
I91
g12
tp1389
a(I61
I86
g14
tp1390
a(I240
I107
g14
tp1391
asS'tmpgeRdXs'
p1392
(lp1393
sS'tmpQcoWKK'
p1394
(lp1395
sS'tmpt2CL5H'
p1396
(lp1397
sS'tmpeo7nDN'
p1398
(lp1399
sS'tmp_bw7Kt'
p1400
(lp1401
sS'tmpaFz15V'
p1402
(lp1403
sS'tmpynTJDu'
p1404
(lp1405
sS'tmpXiYnA8'
p1406
(lp1407
sS'tmpowGAZI'
p1408
(lp1409
sS'tmpRgZ3am'
p1410
(lp1411
(I168
I43
g62
tp1412
asS'tmp0se_Po'
p1413
(lp1414
(I77
I49
g405
tp1415
a(I174
I60
g405
tp1416
a(I271
I40
g12
tp1417
a(I76
I47
g14
tp1418
a(I179
I57
g14
tp1419
a(I242
I52
g14
tp1420
asS'tmpqXkXGU'
p1421
(lp1422
sS'tmpRwliNu'
p1423
(lp1424
(I87
I65
g62
tp1425
a(I170
I68
g62
tp1426
asS'tmpcuMMP1'
p1427
(lp1428
sS'tmp1TzKrE'
p1429
(lp1430
(I76
I101
g38
tp1431
a(I170
I99
g38
tp1432
a(I249
I103
g12
tp1433
a(I73
I96
g14
tp1434
a(I166
I104
g14
tp1435
a(I244
I100
g14
tp1436
asS'tmpFIGvlb'
p1437
(lp1438
(I166
I116
g8
tp1439
a(I68
I102
g8
tp1440
a(I231
I107
g12
tp1441
a(I65
I108
g14
tp1442
a(I168
I124
g14
tp1443
asS'tmpEdbEQH'
p1444
(lp1445
(I180
I97
g8
tp1446
a(I172
I100
g12
tp1447
a(I80
I96
g14
tp1448
a(I177
I103
g14
tp1449
a(I246
I108
g14
tp1450
asS'tmp4Prulc'
p1451
(lp1452
(I161
I117
g8
tp1453
a(I250
I103
g12
tp1454
a(I63
I109
g14
tp1455
a(I167
I120
g14
tp1456
a(I250
I107
g14
tp1457
asS'tmpoM1Xgu'
p1458
(lp1459
sS'tmpCEIlPz'
p1460
(lp1461
sS'tmptF9ZnE'
p1462
(lp1463
sS'tmpsZiRPg'
p1464
(lp1465
sS'tmpb2cWfb'
p1466
(lp1467
sS'tmpOPWAqN'
p1468
(lp1469
sS'tmphSNNXj'
p1470
(lp1471
sS'tmpHedvZO'
p1472
(lp1473
(I73
I105
g8
tp1474
a(I169
I107
g8
tp1475
a(I80
I108
g14
tp1476
a(I173
I112
g14
tp1477
a(I256
I120
g14
tp1478
asS'tmpNL_C34'
p1479
(lp1480
sS'tmpQs3MIi'
p1481
(lp1482
(I83
I45
g62
tp1483
a(I180
I54
g62
tp1484
asS'tmpD0cApn'
p1485
(lp1486
(I272
I107
g12
tp1487
a(I69
I86
g14
tp1488
asS'tmpOQ2phW'
p1489
(lp1490
sS'tmpffA2iT'
p1491
(lp1492
sS'tmpRAmSoA'
p1493
(lp1494
(I82
I65
g62
tp1495
asS'tmpWSw6hQ'
p1496
(lp1497
sS'tmpFs3oWk'
p1498
(lp1499
(I83
I45
g8
tp1500
a(I172
I55
g8
tp1501
a(I243
I51
g8
tp1502
a(I271
I40
g12
tp1503
a(I78
I45
g14
tp1504
a(I172
I57
g14
tp1505
a(I249
I49
g14
tp1506
asS'tmp6tGEzx'
p1507
(lp1508
(I180
I57
g62
tp1509
asS'tmpWT4Dkq'
p1510
(lp1511
sS'tmpYR3uTz'
p1512
(lp1513
sS'tmpeLD32m'
p1514
(lp1515
sS'tmpei2sxO'
p1516
(lp1517
sS'tmpAhd961'
p1518
(lp1519
(I164
I114
g8
tp1520
a(I77
I110
g8
tp1521
a(I265
I100
g12
tp1522
a(I71
I109
g14
tp1523
a(I163
I113
g14
tp1524
a(I256
I112
g14
tp1525
asS'tmpqWGU_v'
p1526
(lp1527
sS'tmp9vXwYw'
p1528
(lp1529
(I265
I102
g12
tp1530
a(I72
I96
g14
tp1531
asS'tmplmyrA4'
p1532
(lp1533
sS'tmpPGDp3z'
p1534
(lp1535
sS'tmpSlzHtT'
p1536
(lp1537
(I161
I70
g62
tp1538
a(I77
I69
g62
tp1539
asS'tmpFVCemU'
p1540
(lp1541
sS'tmpAIKBMQ'
p1542
(lp1543
(I161
I110
g8
tp1544
a(I72
I100
g8
tp1545
a(I251
I106
g12
tp1546
a(I64
I94
g14
tp1547
a(I160
I105
g14
tp1548
a(I239
I109
g14
tp1549
asS'tmpca7ESm'
p1550
(lp1551
sS'tmpyMPc7r'
p1552
(lp1553
sS'tmpyKZ17Y'
p1554
(lp1555
sS'tmpnBvlfD'
p1556
(lp1557
sS'tmpcTGMa8'
p1558
(lp1559
sS'tmp7TJpwp'
p1560
(lp1561
(I57
I93
g8
tp1562
a(I208
I105
g8
tp1563
a(I227
I93
g12
tp1564
a(I65
I96
g14
tp1565
a(I206
I109
g14
tp1566
asS'tmpz7_5oJ'
p1567
(lp1568
sS'tmpfV_Jo0'
p1569
(lp1570
sS'tmpszlVeY'
p1571
(lp1572
sS'tmpMiaTI9'
p1573
(lp1574
sS'tmpyK770n'
p1575
(lp1576
sS'tmpPfziLW'
p1577
(lp1578
sS'tmpg2wnmK'
p1579
(lp1580
sS'tmpsPcLu6'
p1581
(lp1582
sS'tmpmT9JCQ'
p1583
(lp1584
sS'tmpr2OhBh'
p1585
(lp1586
sS'tmpXURTJc'
p1587
(lp1588
sS'tmpUIcZw4'
p1589
(lp1590
sS'tmpILJYdW'
p1591
(lp1592
(I166
I64
g62
tp1593
a(I77
I65
g62
tp1594
asS'tmpipvkM9'
p1595
(lp1596
sS'tmp1xgY7N'
p1597
(lp1598
(I74
I91
g294
tp1599
a(I158
I110
g294
tp1600
a(I253
I99
g12
tp1601
a(I73
I92
g14
tp1602
a(I152
I107
g14
tp1603
a(I244
I102
g14
tp1604
asS'tmp0OF7TW'
p1605
(lp1606
(I69
I127
g405
tp1607
a(I235
I114
g405
tp1608
a(I166
I117
g38
tp1609
a(I167
I102
g12
tp1610
a(I66
I124
g14
tp1611
a(I171
I121
g14
tp1612
a(I241
I121
g14
tp1613
asS'tmpGhAD_9'
p1614
(lp1615
(I166
I110
g8
tp1616
a(I253
I99
g12
tp1617
a(I72
I108
g14
tp1618
a(I169
I112
g14
tp1619
a(I248
I112
g14
tp1620
asS'tmpClENxk'
p1621
(lp1622
(I68
I103
g8
tp1623
a(I166
I118
g8
tp1624
a(I255
I107
g12
tp1625
a(I63
I108
g14
tp1626
a(I160
I116
g14
tp1627
a(I248
I114
g14
tp1628
asS'tmpZoR0wZ'
p1629
(lp1630
sS'tmpsXil3l'
p1631
(lp1632
sS'tmpp7UsSz'
p1633
(lp1634
sS'tmpFH7tf1'
p1635
(lp1636
(I260
I99
g12
tp1637
a(I68
I86
g14
tp1638
a(I239
I119
g14
tp1639
asS'tmpeholri'
p1640
(lp1641
sS'tmpRXose1'
p1642
(lp1643
sS'tmpFAEVtX'
p1644
(lp1645
(I162
I121
g8
tp1646
a(I251
I114
g8
tp1647
a(I175
I101
g12
tp1648
a(I59
I111
g14
tp1649
a(I163
I124
g14
tp1650
a(I252
I121
g14
tp1651
asS'tmpd_CDlB'
p1652
(lp1653
sS'tmp459wDC'
p1654
(lp1655
(I166
I110
g8
tp1656
a(I70
I95
g8
tp1657
a(I176
I100
g12
tp1658
a(I75
I97
g14
tp1659
a(I166
I109
g14
tp1660
a(I243
I116
g14
tp1661
asS'tmpaareUq'
p1662
(lp1663
sS'tmplmueIH'
p1664
(lp1665
sS'tmpTyKZt3'
p1666
(lp1667
sS'tmpIFpvBe'
p1668
(lp1669
(I73
I88
g8
tp1670
a(I72
I91
g14
tp1671
asS'tmpY3hib7'
p1672
(lp1673
sS'tmpDdJmK7'
p1674
(lp1675
(I180
I110
g8
tp1676
a(I78
I112
g8
tp1677
a(I174
I100
g12
tp1678
a(I78
I102
g14
tp1679
a(I173
I108
g14
tp1680
a(I253
I110
g14
tp1681
asS'tmpqAv2Dw'
p1682
(lp1683
sS'tmpVSW8sC'
p1684
(lp1685
sS'tmpR5wUtp'
p1686
(lp1687
sS'tmptCOZg7'
p1688
(lp1689
sS'tmpgcYxU3'
p1690
(lp1691
sS'tmpwquTzW'
p1692
(lp1693
sS'tmpDo0c_9'
p1694
(lp1695
(I158
I103
g8
tp1696
a(I250
I110
g8
tp1697
a(I167
I96
g12
tp1698
a(I67
I103
g14
tp1699
a(I166
I111
g14
tp1700
a(I255
I110
g14
tp1701
asS'tmp5WLnLx'
p1702
(lp1703
(I77
I109
g8
tp1704
a(I170
I112
g8
tp1705
a(I243
I116
g8
tp1706
a(I170
I100
g12
tp1707
a(I75
I107
g14
tp1708
a(I164
I108
g14
tp1709
a(I240
I108
g14
tp1710
asS'tmp1Mw6Zt'
p1711
(lp1712
(I71
I114
g38
tp1713
a(I167
I114
g38
tp1714
a(I163
I96
g12
tp1715
a(I69
I109
g14
tp1716
a(I159
I110
g14
tp1717
a(I248
I113
g14
tp1718
asS'tmp0ewPu7'
p1719
(lp1720
(I82
I54
g62
tp1721
asS'tmpuRLbB5'
p1722
(lp1723
sS'tmpQRYW7n'
p1724
(lp1725
sS'tmp4dLdRE'
p1726
(lp1727
(I165
I107
g8
tp1728
a(I245
I109
g8
tp1729
a(I73
I99
g8
tp1730
a(I260
I102
g12
tp1731
a(I78
I100
g14
tp1732
a(I171
I107
g14
tp1733
a(I237
I110
g14
tp1734
asS'tmpgPhjuY'
p1735
(lp1736
sS'tmpf4YNTt'
p1737
(lp1738
sS'tmpxUWFEx'
p1739
(lp1740
sS'tmpCuiT09'
p1741
(lp1742
sS'tmpEyCbQX'
p1743
(lp1744
(I172
I67
g62
tp1745
asS'tmpcvklvG'
p1746
(lp1747
sS'tmpf4VLlg'
p1748
(lp1749
sS'tmpBy8L7X'
p1750
(lp1751
(I169
I110
g8
tp1752
a(I77
I90
g8
tp1753
a(I261
I103
g12
tp1754
a(I70
I98
g14
tp1755
a(I164
I117
g14
tp1756
a(I244
I117
g14
tp1757
asS'tmpbN3rrl'
p1758
(lp1759
sS'tmpJweXiG'
p1760
(lp1761
(I79
I59
g62
tp1762
a(I173
I72
g62
tp1763
asS'tmpExbKBr'
p1764
(lp1765
(I155
I101
g8
tp1766
a(I256
I103
g12
tp1767
a(I65
I91
g14
tp1768
a(I162
I100
g14
tp1769
a(I244
I109
g14
tp1770
asS'tmpStfsi2'
p1771
(lp1772
sS'tmpAICXsL'
p1773
(lp1774
(I183
I78
g62
tp1775
asS'tmpHQg3ea'
p1776
(lp1777
(I168
I58
g62
tp1778
a(I74
I54
g62
tp1779
asS'tmpXpzyle'
p1780
(lp1781
sS'tmp1RWFYZ'
p1782
(lp1783
(I96
I57
g62
tp1784
asS'tmpM2UA3G'
p1785
(lp1786
sS'tmpUp2g2T'
p1787
(lp1788
sS'tmpK7jXMg'
p1789
(lp1790
sS'tmpsfaou1'
p1791
(lp1792
sS'tmpjM13m_'
p1793
(lp1794
sS'tmpz1lI1U'
p1795
(lp1796
sS'tmpB8R_RT'
p1797
(lp1798
(I168
I53
g8
tp1799
a(I73
I38
g8
tp1800
a(I184
I46
g12
tp1801
a(I71
I45
g14
tp1802
a(I172
I58
g14
tp1803
a(I237
I56
g14
tp1804
asS'tmpWgodg9'
p1805
(lp1806
sS'tmpMfI67y'
p1807
(lp1808
sS'tmpa5a62l'
p1809
(lp1810
sS'tmpFoLF8E'
p1811
(lp1812
(I156
I106
g8
tp1813
a(I258
I98
g12
tp1814
a(I81
I95
g14
tp1815
a(I163
I102
g14
tp1816
a(I246
I100
g14
tp1817
asS'tmpszifKc'
p1818
(lp1819
sS'tmpNEJQhi'
p1820
(lp1821
sS'tmpaxp3hj'
p1822
(lp1823
sS'tmp7n_xEO'
p1824
(lp1825
(I180
I53
g8
tp1826
a(I86
I47
g10
tp1827
a(I265
I42
g12
tp1828
a(I177
I59
g14
tp1829
a(I242
I57
g14
tp1830
asS'tmp24aVLW'
p1831
(lp1832
(I170
I54
g294
tp1833
a(I258
I45
g12
tp1834
a(I85
I57
g14
tp1835
a(I173
I56
g14
tp1836
a(I231
I65
g14
tp1837
asS'tmp9_r9Rr'
p1838
(lp1839
(I160
I112
g8
tp1840
a(I252
I102
g12
tp1841
a(I76
I107
g14
tp1842
a(I168
I114
g14
tp1843
a(I248
I111
g14
tp1844
asS'tmp95lBNl'
p1845
(lp1846
(I77
I107
g8
tp1847
a(I172
I107
g8
tp1848
a(I175
I101
g12
tp1849
a(I72
I101
g14
tp1850
a(I170
I107
g14
tp1851
a(I238
I112
g14
tp1852
asS'tmppglAIe'
p1853
(lp1854
sS'tmpdXhSBP'
p1855
(lp1856
sS'tmpEr770S'
p1857
(lp1858
(I255
I103
g12
tp1859
a(I73
I98
g14
tp1860
a(I257
I111
g14
tp1861
asS'tmplVo89H'
p1862
(lp1863
sS'tmpHICx1R'
p1864
(lp1865
(I87
I103
g8
tp1866
a(I316
I128
g8
tp1867
a(I85
I105
g14
tp1868
a(I241
I124
g14
tp1869
a(I323
I124
g14
tp1870
asS'tmplf2VQ9'
p1871
(lp1872
sS'tmp85MbDq'
p1873
(lp1874
(I175
I54
g62
tp1875
asS'tmpTHdAkB'
p1876
(lp1877
sS'tmprjlS7n'
p1878
(lp1879
sS'tmpcmzBBX'
p1880
(lp1881
sS'tmp6MLFBo'
p1882
(lp1883
(I87
I91
g8
tp1884
a(I255
I107
g12
tp1885
a(I84
I100
g14
tp1886
a(I253
I111
g14
tp1887
asS'tmpZ98gJG'
p1888
(lp1889
sS'tmptpxQvi'
p1890
(lp1891
sS'tmp7jEKtK'
p1892
(lp1893
(I73
I93
g8
tp1894
a(I169
I103
g8
tp1895
a(I244
I109
g8
tp1896
a(I179
I96
g12
tp1897
a(I73
I100
g14
tp1898
a(I172
I108
g14
tp1899
a(I241
I111
g14
tp1900
asS'tmpCWspWZ'
p1901
(lp1902
(I131
I43
g62
tp1903
a(I285
I28
g62
tp1904
asS'tmpWeWVEx'
p1905
(lp1906
sS'tmpUAbLEs'
p1907
(lp1908
sS'tmpSfxu7y'
p1909
(lp1910
sS'tmpzhbqAL'
p1911
(lp1912
sS'tmpO2QjB9'
p1913
(lp1914
sS'tmpZ6rPy_'
p1915
(lp1916
sS'tmphcPbpU'
p1917
(lp1918
sS'tmpFJz9r1'
p1919
(lp1920
(I156
I100
g8
tp1921
a(I241
I113
g8
tp1922
a(I172
I98
g12
tp1923
a(I64
I98
g14
tp1924
a(I163
I112
g14
tp1925
a(I238
I114
g14
tp1926
asS'tmp1mQKDg'
p1927
(lp1928
(I166
I111
g294
tp1929
a(I248
I110
g294
tp1930
a(I250
I100
g12
tp1931
a(I66
I100
g14
tp1932
a(I161
I116
g14
tp1933
a(I243
I109
g14
tp1934
asS'tmpeFoZEl'
p1935
(lp1936
sS'tmproZqq7'
p1937
(lp1938
sS'tmpwW_Zz4'
p1939
(lp1940
sS'tmpxXjUhN'
p1941
(lp1942
sS'tmp2WVDQ8'
p1943
(lp1944
(I80
I44
g294
tp1945
a(I169
I62
g294
tp1946
a(I180
I45
g12
tp1947
a(I78
I52
g14
tp1948
a(I170
I57
g14
tp1949
a(I235
I64
g14
tp1950
asS'tmpYB_OK2'
p1951
(lp1952
sS'tmpheXyAu'
p1953
(lp1954
sS'tmpo_wLJ2'
p1955
(lp1956
sS'tmpBCYoxh'
p1957
(lp1958
(I87
I114
g8
tp1959
a(I163
I111
g8
tp1960
a(I255
I106
g12
tp1961
a(I80
I107
g14
tp1962
a(I161
I114
g14
tp1963
a(I255
I122
g14
tp1964
asS'tmpNidYUf'
p1965
(lp1966
sS'tmp5BGFXF'
p1967
(lp1968
(I77
I93
g8
tp1969
a(I249
I91
g8
tp1970
a(I250
I105
g12
tp1971
a(I75
I89
g14
tp1972
a(I170
I105
g14
tp1973
a(I248
I103
g14
tp1974
asS'tmpzUoVkI'
p1975
(lp1976
sS'tmpqcuth2'
p1977
(lp1978
sS'tmpEHNxHK'
p1979
(lp1980
(I80
I64
g62
tp1981
a(I174
I63
g62
tp1982
asS'tmpzju25b'
p1983
(lp1984
sS'tmpxRJqP0'
p1985
(lp1986
sS'tmpGlxhyP'
p1987
(lp1988
(I160
I116
g8
tp1989
a(I58
I114
g14
tp1990
a(I161
I123
g14
tp1991
a(I253
I120
g14
tp1992
asS'tmp1J9X3G'
p1993
(lp1994
(I168
I105
g38
tp1995
a(I260
I102
g12
tp1996
a(I70
I99
g14
tp1997
a(I176
I105
g14
tp1998
a(I249
I105
g14
tp1999
asS'tmpMR9Twq'
p2000
(lp2001
sS'tmpyrTYcG'
p2002
(lp2003
sS'tmpGpqiMU'
p2004
(lp2005
(I160
I116
g8
tp2006
a(I80
I84
g8
tp2007
a(I221
I123
g8
tp2008
a(I84
I85
g14
tp2009
a(I161
I127
g14
tp2010
a(I225
I124
g14
tp2011
asS'tmpG2MuUE'
p2012
(lp2013
(I257
I114
g8
tp2014
a(I253
I105
g12
tp2015
a(I107
I109
g14
tp2016
a(I248
I122
g14
tp2017
asS'tmpPyXRry'
p2018
(lp2019
sS'tmpw9a7hy'
p2020
(lp2021
sS'tmpleMI2m'
p2022
(lp2023
sS'tmp8RfaRb'
p2024
(lp2025
(I177
I56
g62
tp2026
asS'tmpknew6m'
p2027
(lp2028
sS'tmpj08Z4v'
p2029
(lp2030
sS'tmp6Z7oVD'
p2031
(lp2032
(I164
I93
g8
tp2033
a(I80
I86
g8
tp2034
a(I264
I96
g12
tp2035
a(I80
I86
g14
tp2036
a(I164
I93
g14
tp2037
a(I263
I98
g14
tp2038
asS'tmpzJpYcm'
p2039
(lp2040
sS'tmplWqpIq'
p2041
(lp2042
sS'tmp44bXZx'
p2043
(lp2044
(I178
I96
g8
tp2045
a(I69
I93
g8
tp2046
a(I254
I108
g12
tp2047
a(I69
I94
g14
tp2048
a(I179
I100
g14
tp2049
a(I252
I103
g14
tp2050
asS'tmplC4Whl'
p2051
(lp2052
sS'tmp7exFr3'
p2053
(lp2054
(I264
I100
g12
tp2055
a(I77
I96
g14
tp2056
a(I266
I95
g14
tp2057
asS'tmp_ArFyI'
p2058
(lp2059
sS'tmpluBhQC'
p2060
(lp2061
sS'tmpoRjuko'
p2062
(lp2063
sS'tmpLYkHSn'
p2064
(lp2065
sS'tmprlWcSs'
p2066
(lp2067
sS'tmpF2fSqP'
p2068
(lp2069
sS'tmpLPDfBf'
p2070
(lp2071
sS'tmpjnRrsx'
p2072
(lp2073
sS'tmpTeXh32'
p2074
(lp2075
sS'tmpIDLsoM'
p2076
(lp2077
(I167
I110
g8
tp2078
a(I76
I103
g14
tp2079
a(I160
I116
g14
tp2080
a(I242
I116
g14
tp2081
asS'tmpRWN1Mn'
p2082
(lp2083
(I189
I94
g62
tp2084
asS'tmpgFy5bo'
p2085
(lp2086
sS'tmp4ROFrQ'
p2087
(lp2088
(I165
I102
g8
tp2089
a(I250
I108
g8
tp2090
a(I161
I96
g12
tp2091
a(I74
I97
g14
tp2092
a(I163
I100
g14
tp2093
a(I246
I112
g14
tp2094
asS'tmpzyqYSx'
p2095
(lp2096
sS'tmpJVhOHV'
p2097
(lp2098
(I183
I59
g62
tp2099
asS'tmpzIPk_J'
p2100
(lp2101
sS'tmpw9HzZa'
p2102
(lp2103
sS'tmp3ZlqXG'
p2104
(lp2105
(I166
I98
g8
tp2106
a(I68
I93
g10
tp2107
a(I240
I105
g12
tp2108
a(I167
I104
g14
tp2109
a(I241
I105
g14
tp2110
asS'tmpeXrSyG'
p2111
(lp2112
sS'tmpoMP2wp'
p2113
(lp2114
sS'tmparju8B'
p2115
(lp2116
sS'tmp9qkM7v'
p2117
(lp2118
(I160
I108
g8
tp2119
a(I253
I92
g8
tp2120
a(I262
I98
g12
tp2121
a(I65
I82
g14
tp2122
a(I160
I111
g14
tp2123
a(I257
I93
g14
tp2124
asS'tmpUUCEmh'
p2125
(lp2126
sS'tmpakSZmA'
p2127
(lp2128
sS'tmp9r82qO'
p2129
(lp2130
(I201
I104
g8
tp2131
a(I144
I111
g8
tp2132
a(I55
I102
g8
tp2133
a(I232
I93
g12
tp2134
a(I53
I102
g14
tp2135
a(I147
I113
g14
tp2136
a(I205
I106
g14
tp2137
asS'tmp2GFv60'
p2138
(lp2139
(I172
I115
g294
tp2140
a(I246
I102
g12
tp2141
a(I71
I103
g14
tp2142
a(I173
I118
g14
tp2143
a(I248
I110
g14
tp2144
asS'tmpdzbiSh'
p2145
(lp2146
sS'tmpkEkyfK'
p2147
(lp2148
sS'tmpcBhVd9'
p2149
(lp2150
sS'tmp9Nx0eD'
p2151
(lp2152
(I103
I62
g62
tp2153
asS'tmpXpDgv2'
p2154
(lp2155
sS'tmpPwSreF'
p2156
(lp2157
sS'tmpGbQs2R'
p2158
(lp2159
(I165
I99
g8
tp2160
a(I81
I90
g10
tp2161
a(I232
I104
g12
tp2162
a(I166
I95
g14
tp2163
a(I241
I106
g14
tp2164
asS'tmpqrSee0'
p2165
(lp2166
sS'tmpcoKBJv'
p2167
(lp2168
sS'tmpMQ8yTg'
p2169
(lp2170
sS'tmp0qJ4fE'
p2171
(lp2172
(I254
I100
g12
tp2173
a(I77
I91
g14
tp2174
asS'tmppgIPO6'
p2175
(lp2176
sS'tmpEsLEhR'
p2177
(lp2178
(I64
I105
g8
tp2179
a(I159
I122
g8
tp2180
a(I258
I103
g12
tp2181
a(I68
I103
g14
tp2182
a(I161
I115
g14
tp2183
a(I253
I118
g14
tp2184
asS'tmpsFajq3'
p2185
(lp2186
sS'tmpTKn2GR'
p2187
(lp2188
sS'tmpG1Zt7k'
p2189
(lp2190
(I162
I110
g8
tp2191
a(I258
I127
g8
tp2192
a(I258
I102
g12
tp2193
a(I80
I114
g14
tp2194
a(I170
I119
g14
tp2195
a(I260
I122
g14
tp2196
asS'tmppoAufN'
p2197
(lp2198
sS'tmpfN32lw'
p2199
(lp2200
sS'tmpDMBK6R'
p2201
(lp2202
(I170
I106
g8
tp2203
a(I77
I89
g8
tp2204
a(I253
I103
g12
tp2205
a(I78
I95
g14
tp2206
a(I167
I105
g14
tp2207
a(I251
I100
g14
tp2208
asS'tmpNVd6fm'
p2209
(lp2210
sS'tmpOrZ3ME'
p2211
(lp2212
sS'tmpEGC7fz'
p2213
(lp2214
(I90
I68
g62
tp2215
asS'tmpJlRTPd'
p2216
(lp2217
(I176
I66
g62
tp2218
a(I75
I57
g62
tp2219
asS'tmp9e4mW7'
p2220
(lp2221
(I169
I110
g8
tp2222
a(I245
I104
g12
tp2223
a(I75
I88
g14
tp2224
a(I158
I111
g14
tp2225
a(I251
I112
g14
tp2226
asS'tmptGDfIU'
p2227
(lp2228
sS'tmp5Ho2Op'
p2229
(lp2230
(I71
I130
g8
tp2231
a(I165
I125
g8
tp2232
a(I237
I121
g8
tp2233
a(I246
I102
g12
tp2234
a(I63
I123
g14
tp2235
a(I163
I122
g14
tp2236
a(I236
I120
g14
tp2237
asS'tmp_ebj16'
p2238
(lp2239
sS'tmpID2aEh'
p2240
(lp2241
(I189
I65
g62
tp2242
asS'tmps_P89n'
p2243
(lp2244
sS'tmpAmIku0'
p2245
(lp2246
(I168
I117
g8
tp2247
a(I255
I106
g12
tp2248
a(I87
I105
g14
tp2249
a(I164
I120
g14
tp2250
a(I263
I123
g14
tp2251
asS'tmpOsmdfD'
p2252
(lp2253
sS'tmpoUie17'
p2254
(lp2255
sS'tmpn6Wswf'
p2256
(lp2257
sS'tmp7oZbpS'
p2258
(lp2259
(I73
I63
g62
tp2260
a(I162
I70
g62
tp2261
asS'tmp6GrOyP'
p2262
(lp2263
(I74
I85
g8
tp2264
a(I232
I104
g8
tp2265
a(I270
I97
g12
tp2266
a(I74
I94
g14
tp2267
a(I231
I108
g14
tp2268
asS'tmpx8Nwcl'
p2269
(lp2270
sS'tmp8PXXQR'
p2271
(lp2272
(I69
I88
g8
tp2273
a(I155
I92
g8
tp2274
a(I250
I90
g8
tp2275
a(I255
I105
g12
tp2276
a(I68
I88
g14
tp2277
a(I165
I99
g14
tp2278
a(I248
I102
g14
tp2279
asS'tmp5FmMun'
p2280
(lp2281
(I167
I100
g8
tp2282
a(I71
I92
g10
tp2283
a(I250
I105
g12
tp2284
a(I172
I106
g14
tp2285
a(I241
I103
g14
tp2286
asS'tmpeGqZzh'
p2287
(lp2288
sS'tmp3AO1Sc'
p2289
(lp2290
(I164
I103
g8
tp2291
a(I256
I103
g12
tp2292
a(I72
I93
g14
tp2293
a(I163
I112
g14
tp2294
a(I255
I112
g14
tp2295
asS'tmpE0O3oV'
p2296
(lp2297
(I163
I98
g8
tp2298
a(I257
I98
g12
tp2299
a(I70
I95
g14
tp2300
a(I172
I98
g14
tp2301
a(I251
I100
g14
tp2302
asS'tmpg1fgEJ'
p2303
(lp2304
sS'tmpqymQXI'
p2305
(lp2306
sS'tmpU_49FY'
p2307
(lp2308
sS'tmpoF_iwc'
p2309
(lp2310
sS'tmpAgkJv7'
p2311
(lp2312
(I163
I112
g8
tp2313
a(I265
I105
g12
tp2314
a(I81
I103
g14
tp2315
a(I166
I117
g14
tp2316
a(I237
I121
g14
tp2317
asS'tmp4HtLlG'
p2318
(lp2319
(I169
I99
g8
tp2320
a(I68
I93
g10
tp2321
a(I243
I100
g12
tp2322
a(I172
I108
g14
tp2323
a(I242
I104
g14
tp2324
asS'tmprDR9wW'
p2325
(lp2326
sS'tmprrSEXZ'
p2327
(lp2328
sS'tmpFPaSV_'
p2329
(lp2330
(I67
I112
g8
tp2331
a(I164
I108
g8
tp2332
a(I243
I117
g8
tp2333
a(I169
I100
g12
tp2334
a(I65
I109
g14
tp2335
a(I165
I108
g14
tp2336
a(I242
I115
g14
tp2337
asS'tmp3xLfIu'
p2338
(lp2339
(I159
I94
g8
tp2340
a(I78
I85
g8
tp2341
a(I255
I101
g12
tp2342
a(I80
I91
g14
tp2343
a(I157
I93
g14
tp2344
a(I254
I96
g14
tp2345
asS'tmpMhzPTP'
p2346
(lp2347
sS'tmpfA82Ix'
p2348
(lp2349
sS'tmp_vKSe8'
p2350
(lp2351
sS'tmpGX47vA'
p2352
(lp2353
(I68
I91
g8
tp2354
a(I244
I103
g12
tp2355
a(I74
I94
g14
tp2356
a(I240
I100
g14
tp2357
asS'tmp_IPKNS'
p2358
(lp2359
sS'tmpu8dUZa'
p2360
(lp2361
sS'tmpwlHzPp'
p2362
(lp2363
sS'tmpSIcJOb'
p2364
(lp2365
sS'tmpBkBFP4'
p2366
(lp2367
sS'tmp6r3WVJ'
p2368
(lp2369
(I253
I94
g12
tp2370
a(I83
I86
g14
tp2371
asS'tmpPRQcsD'
p2372
(lp2373
sS'tmpb_GELb'
p2374
(lp2375
sS'tmpwSuT2E'
p2376
(lp2377
sS'tmpj2N7It'
p2378
(lp2379
sS'tmptT9ofb'
p2380
(lp2381
sS'tmp4THJqK'
p2382
(lp2383
(I177
I78
g62
tp2384
asS'tmpOr_typ'
p2385
(lp2386
(I85
I54
g62
tp2387
asS'tmpa6DO0U'
p2388
(lp2389
sS'tmppoqkVl'
p2390
(lp2391
sS'tmpnAjRuG'
p2392
(lp2393
sS'tmpwCIGAG'
p2394
(lp2395
sS'tmpvwJLuQ'
p2396
(lp2397
sS'tmpyNEL99'
p2398
(lp2399
sS'tmpvfsPBG'
p2400
(lp2401
sS'tmp7GLDGL'
p2402
(lp2403
(I168
I96
g8
tp2404
a(I250
I94
g8
tp2405
a(I75
I84
g8
tp2406
a(I268
I100
g12
tp2407
a(I79
I88
g14
tp2408
a(I174
I96
g14
tp2409
a(I246
I96
g14
tp2410
asS'tmp1BFQag'
p2411
(lp2412
(I167
I110
g38
tp2413
a(I273
I104
g12
tp2414
a(I69
I93
g14
tp2415
a(I159
I102
g14
tp2416
a(I235
I109
g14
tp2417
asS'tmpVG0uz4'
p2418
(lp2419
sS'tmpbvQQqy'
p2420
(lp2421
sS'tmpwNVUFO'
p2422
(lp2423
sS'tmpeT7sNI'
p2424
(lp2425
sS'tmpbR7x_D'
p2426
(lp2427
sS'tmpnU0Tn8'
p2428
(lp2429
sS'tmp32soVy'
p2430
(lp2431
(I103
I70
g62
tp2432
asS'tmpeOoGsl'
p2433
(lp2434
sS'tmpugtwq0'
p2435
(lp2436
sS'tmpNeOWRS'
p2437
(lp2438
sS'tmp6L6HCT'
p2439
(lp2440
(I68
I85
g8
tp2441
a(I276
I116
g12
tp2442
a(I68
I85
g14
tp2443
asS'tmpFMO4fU'
p2444
(lp2445
(I232
I104
g8
tp2446
a(I246
I103
g12
tp2447
a(I75
I104
g14
tp2448
a(I230
I105
g14
tp2449
asS'tmp75GZ9w'
p2450
(lp2451
(I75
I95
g8
tp2452
a(I175
I94
g8
tp2453
a(I171
I99
g12
tp2454
a(I80
I91
g14
tp2455
a(I175
I92
g14
tp2456
a(I251
I103
g14
tp2457
asS'tmpyyskNO'
p2458
(lp2459
sS'tmpoQdV1k'
p2460
(lp2461
sS'tmpu2PhEB'
p2462
(lp2463
sS'tmpNxQXf7'
p2464
(lp2465
(I183
I70
g62
tp2466
asS'tmpoXZIgV'
p2467
(lp2468
sS'tmpIrsDGS'
p2469
(lp2470
(I70
I100
g14
tp2471
a(I170
I94
g14
tp2472
a(I227
I105
g14
tp2473
asS'tmpigXPhg'
p2474
(lp2475
(I230
I97
g1372
tp2476
asS'tmp1ntciM'
p2477
(lp2478
(I175
I107
g294
tp2479
a(I252
I104
g12
tp2480
a(I67
I101
g14
tp2481
a(I174
I113
g14
tp2482
a(I248
I101
g14
tp2483
asS'tmpzphk7F'
p2484
(lp2485
sS'tmpmFdMMO'
p2486
(lp2487
sS'tmpkF_uRj'
p2488
(lp2489
sS'tmpAL7wWd'
p2490
(lp2491
(I70
I120
g8
tp2492
a(I168
I123
g8
tp2493
a(I246
I116
g8
tp2494
a(I251
I103
g12
tp2495
a(I73
I121
g14
tp2496
a(I165
I121
g14
tp2497
a(I249
I118
g14
tp2498
asS'tmpT1no2S'
p2499
(lp2500
sS'tmpNcaiB9'
p2501
(lp2502
sS'tmp3xx2w7'
p2503
(lp2504
(I161
I106
g8
tp2505
a(I251
I108
g8
tp2506
a(I255
I103
g12
tp2507
a(I73
I100
g14
tp2508
a(I160
I110
g14
tp2509
a(I255
I108
g14
tp2510
asS'tmpr3e8hE'
p2511
(lp2512
sS'tmpSEN9AA'
p2513
(lp2514
(I175
I68
g62
tp2515
asS'tmp5SVZj0'
p2516
(lp2517
(I75
I91
g8
tp2518
a(I270
I104
g12
tp2519
a(I69
I89
g14
tp2520
asS'tmp7EJOVq'
p2521
(lp2522
(I243
I100
g12
tp2523
a(I68
I89
g14
tp2524
a(I243
I90
g14
tp2525
asS'tmp0yW1FF'
p2526
(lp2527
(I257
I100
g12
tp2528
a(I55
I120
g14
tp2529
a(I247
I108
g14
tp2530
asS'tmpnCF2a9'
p2531
(lp2532
sS'tmp2b5lh0'
p2533
(lp2534
(I166
I75
g62
tp2535
asS'tmppgEyjO'
p2536
(lp2537
sS'tmp5mxKj6'
p2538
(lp2539
(I161
I102
g8
tp2540
a(I259
I99
g12
tp2541
a(I72
I97
g14
tp2542
a(I163
I103
g14
tp2543
a(I240
I111
g14
tp2544
asS'tmpld7MGu'
p2545
(lp2546
sS'tmp8J4nzo'
p2547
(lp2548
(I149
I75
g62
tp2549
asS'tmpjN6kmQ'
p2550
(lp2551
sS'tmpoyFurG'
p2552
(lp2553
sS'tmp9kGdNn'
p2554
(lp2555
(I237
I122
g8
tp2556
a(I176
I101
g12
tp2557
a(I75
I100
g14
tp2558
a(I163
I109
g14
tp2559
a(I243
I122
g14
tp2560
asS'tmpRScjJr'
p2561
(lp2562
(I77
I49
g62
tp2563
a(I168
I49
g62
tp2564
asS'tmpyygm4a'
p2565
(lp2566
sS'tmplg68sQ'
p2567
(lp2568
sS'tmpuyBeMH'
p2569
(lp2570
sS'tmpfStvjW'
p2571
(lp2572
sS'tmpKjDJk9'
p2573
(lp2574
sS'tmpDTNbCV'
p2575
(lp2576
(I176
I58
g62
tp2577
a(I86
I43
g62
tp2578
asS'tmpM8MYnG'
p2579
(lp2580
sS'tmpF9_6Sx'
p2581
(lp2582
(I71
I84
g8
tp2583
a(I250
I105
g12
tp2584
a(I74
I89
g14
tp2585
a(I161
I114
g14
tp2586
a(I258
I97
g14
tp2587
asS'tmpDOtln8'
p2588
(lp2589
(I260
I110
g12
tp2590
a(I67
I111
g14
tp2591
asS'tmppl4oW7'
p2592
(lp2593
sS'tmpyhgX8q'
p2594
(lp2595
sS'tmpDJgFR9'
p2596
(lp2597
(I163
I98
g8
tp2598
a(I170
I98
g12
tp2599
a(I71
I94
g14
tp2600
a(I160
I104
g14
tp2601
a(I246
I104
g14
tp2602
asS'tmpQ6BWX1'
p2603
(lp2604
sS'tmpfbdjMk'
p2605
(lp2606
sS'tmpmH9Z8U'
p2607
(lp2608
sS'tmp7knJEb'
p2609
(lp2610
(I71
I105
g8
tp2611
a(I161
I100
g8
tp2612
a(I249
I104
g12
tp2613
a(I73
I102
g14
tp2614
a(I157
I105
g14
tp2615
a(I237
I108
g14
tp2616
asS'tmpW9gDF2'
p2617
(lp2618
sS'tmpGDn2ql'
p2619
(lp2620
(I159
I109
g8
tp2621
a(I258
I104
g12
tp2622
a(I80
I97
g14
tp2623
a(I163
I117
g14
tp2624
a(I249
I111
g14
tp2625
asS'tmpeMuXIQ'
p2626
(lp2627
sS'tmpKlDxH1'
p2628
(lp2629
sS'tmprVG4PC'
p2630
(lp2631
sS'tmpCSwEKB'
p2632
(lp2633
(I175
I93
g8
tp2634
a(I83
I89
g10
tp2635
a(I165
I102
g12
tp2636
a(I174
I94
g14
tp2637
a(I253
I93
g14
tp2638
asS'tmpGXn4Ud'
p2639
(lp2640
(I71
I112
g8
tp2641
a(I230
I111
g12
tp2642
a(I76
I100
g14
tp2643
asS'tmpqraQDI'
p2644
(lp2645
sS'tmpxNgMkN'
p2646
(lp2647
sS'tmpRNEHBu'
p2648
(lp2649
(I179
I60
g62
tp2650
asS'tmpLZlhUU'
p2651
(lp2652
sS'tmprGONv0'
p2653
(lp2654
sS'tmpALy0SB'
p2655
(lp2656
(I176
I72
g62
tp2657
asS'tmpjcl2Py'
p2658
(lp2659
sS'tmpzq6slG'
p2660
(lp2661
sS'tmpFKHj02'
p2662
(lp2663
(I68
I86
g8
tp2664
a(I265
I101
g12
tp2665
a(I64
I83
g14
tp2666
asS'tmp19g5_U'
p2667
(lp2668
(I83
I43
g62
tp2669
a(I181
I56
g62
tp2670
asS'tmpSVPz3u'
p2671
(lp2672
sS'tmpDVzwlF'
p2673
(lp2674
(I169
I52
g8
tp2675
a(I98
I37
g8
tp2676
a(I270
I40
g12
tp2677
a(I98
I51
g14
tp2678
a(I168
I57
g14
tp2679
a(I271
I50
g14
tp2680
asS'tmpXIlkev'
p2681
(lp2682
sS'tmpLO4saT'
p2683
(lp2684
(I71
I95
g10
tp2685
asS'tmpkgbEVD'
p2686
(lp2687
sS'tmpTXCKyD'
p2688
(lp2689
sS'tmpSfpMWQ'
p2690
(lp2691
sS'tmpFFTpoh'
p2692
(lp2693
(I153
I98
g8
tp2694
a(I69
I91
g8
tp2695
a(I161
I94
g12
tp2696
a(I74
I94
g14
tp2697
a(I146
I111
g14
tp2698
a(I239
I108
g14
tp2699
asS'tmpgjudM6'
p2700
(lp2701
sS'tmphkBXJl'
p2702
(lp2703
sS'tmpTaZ7Ar'
p2704
(lp2705
sS'tmpQ20PXj'
p2706
(lp2707
(I90
I80
g62
tp2708
asS'tmpIOmQCi'
p2709
(lp2710
(I80
I88
g8
tp2711
a(I167
I110
g8
tp2712
a(I246
I103
g8
tp2713
a(I67
I98
g14
tp2714
a(I173
I112
g14
tp2715
a(I244
I109
g14
tp2716
asS'tmpNJVtoJ'
p2717
(lp2718
sS'tmpP5XiDG'
p2719
(lp2720
sS'tmp2doeFT'
p2721
(lp2722
(I70
I89
S'empty'
tp2723
a(I166
I96
g8
tp2724
a(I239
I102
g12
tp2725
a(I172
I103
g14
tp2726
a(I239
I109
g14
tp2727
asS'tmp2672iA'
p2728
(lp2729
(I80
I103
g294
tp2730
a(I161
I103
g294
tp2731
a(I253
I99
g12
tp2732
a(I81
I94
g14
tp2733
a(I163
I107
g14
tp2734
a(I251
I97
g14
tp2735
asS'tmpRaGHfs'
p2736
(lp2737
sS'tmprCHKoc'
p2738
(lp2739
sS'tmpmBji07'
p2740
(lp2741
sS'tmpqcbor1'
p2742
(lp2743
sS'tmp0Yyr8B'
p2744
(lp2745
(I71
I125
g405
tp2746
a(I162
I122
g405
tp2747
a(I241
I122
g38
tp2748
a(I246
I99
g12
tp2749
a(I69
I123
g14
tp2750
a(I160
I122
g14
tp2751
a(I238
I119
g14
tp2752
asS'tmp7ebaG5'
p2753
(lp2754
(I231
I110
g12
tp2755
a(I68
I95
g14
tp2756
asS'tmpXacWHx'
p2757
(lp2758
sS'tmp8Iy_5i'
p2759
(lp2760
(I160
I94
g8
tp2761
a(I164
I100
g12
tp2762
a(I68
I89
g14
tp2763
a(I160
I100
g14
tp2764
a(I249
I106
g14
tp2765
asS'tmpEOH4md'
p2766
(lp2767
(I165
I109
g8
tp2768
a(I246
I107
g12
tp2769
a(I78
I98
g14
tp2770
a(I165
I110
g14
tp2771
a(I245
I115
g14
tp2772
asS'tmprKeSYj'
p2773
(lp2774
sS'tmppsnf_p'
p2775
(lp2776
sS'tmpJFkoxv'
p2777
(lp2778
(I169
I60
g62
tp2779
asS'tmpu1gGXr'
p2780
(lp2781
sS'tmp_fiaId'
p2782
(lp2783
sS'tmpNp4DwF'
p2784
(lp2785
(I86
I48
g62
tp2786
a(I183
I53
g62
tp2787
asS'tmphvXlkY'
p2788
(lp2789
sS'tmpiwlPxh'
p2790
(lp2791
sS'tmppivPtv'
p2792
(lp2793
sS'tmp2ol3uJ'
p2794
(lp2795
(I80
I89
g8
tp2796
a(I275
I109
g12
tp2797
a(I82
I93
g14
tp2798
asS'tmpiQUeZ9'
p2799
(lp2800
sS'tmpRAHyjr'
p2801
(lp2802
sS'tmpP4RSOG'
p2803
(lp2804
sS'tmpILSWsR'
p2805
(lp2806
(I70
I82
g8
tp2807
a(I153
I108
g8
tp2808
a(I74
I95
g14
tp2809
a(I161
I106
g14
tp2810
a(I252
I102
g14
tp2811
asS'tmpQMQzYW'
p2812
(lp2813
sS'tmpUak2hV'
p2814
(lp2815
sS'tmpmYDi5z'
p2816
(lp2817
sS'tmpPWNXQJ'
p2818
(lp2819
sS'tmpgz9Sik'
p2820
(lp2821
sS'tmpD0oQeM'
p2822
(lp2823
(I175
I114
g8
tp2824
a(I252
I102
g12
tp2825
a(I74
I103
g14
tp2826
a(I174
I116
g14
tp2827
a(I251
I112
g14
tp2828
asS'tmpoxUCSs'
p2829
(lp2830
sS'tmplf5uVX'
p2831
(lp2832
sS'tmpeQrxPh'
p2833
(lp2834
sS'tmpNGShdV'
p2835
(lp2836
sS'tmpQJbvkh'
p2837
(lp2838
sS'tmp_72Oe1'
p2839
(lp2840
sS'tmpwmrD3h'
p2841
(lp2842
sS'tmpTjSIKw'
p2843
(lp2844
sS'tmpWkn063'
p2845
(lp2846
sS'tmp_4vRTE'
p2847
(lp2848
sS'tmpMIUPCX'
p2849
(lp2850
sS'tmpTf2F1H'
p2851
(lp2852
sS'tmpXQWqoN'
p2853
(lp2854
sS'tmpTc7huQ'
p2855
(lp2856
sS'tmpRGnFM7'
p2857
(lp2858
sS'tmpHw9B6t'
p2859
(lp2860
(I74
I103
g14
tp2861
a(I161
I114
g14
tp2862
a(I261
I104
g14
tp2863
asS'tmpXE22Y6'
p2864
(lp2865
sS'tmpPst32w'
p2866
(lp2867
sS'tmpjnL1Dl'
p2868
(lp2869
sS'tmpBzGO4V'
p2870
(lp2871
(I170
I57
g62
tp2872
a(I74
I57
g62
tp2873
asS'tmphcGNER'
p2874
(lp2875
sS'tmpqrmbQp'
p2876
(lp2877
sS'tmpA0tAKN'
p2878
(lp2879
(I161
I93
g8
tp2880
a(I72
I86
g8
tp2881
a(I241
I102
g12
tp2882
a(I72
I94
g14
tp2883
a(I168
I96
g14
tp2884
a(I225
I103
g14
tp2885
asS'tmpTN_Y8a'
p2886
(lp2887
sS'tmp28BFvs'
p2888
(lp2889
(I70
I130
g294
tp2890
a(I160
I128
g294
tp2891
a(I236
I117
g294
tp2892
a(I173
I97
g12
tp2893
a(I70
I125
g14
tp2894
a(I163
I128
g14
tp2895
a(I235
I123
g14
tp2896
asS'tmpGbIRdn'
p2897
(lp2898
(I73
I45
g8
tp2899
a(I248
I59
g8
tp2900
a(I270
I41
g12
tp2901
a(I80
I48
g14
tp2902
a(I244
I65
g14
tp2903
asS'tmpPa3zQo'
p2904
(lp2905
sS'tmpyyGDcg'
p2906
(lp2907
sS'tmpOm78Pa'
p2908
(lp2909
sS'tmplqPiDk'
p2910
(lp2911
sS'tmp4MiTbh'
p2912
(lp2913
(I165
I106
g8
tp2914
a(I78
I92
g8
tp2915
a(I258
I106
g12
tp2916
a(I66
I96
g14
tp2917
a(I160
I106
g14
tp2918
a(I250
I110
g14
tp2919
asS'tmpTBGgrQ'
p2920
(lp2921
sS'tmpLL9MJX'
p2922
(lp2923
sS'tmp8R8jrQ'
p2924
(lp2925
(I83
I53
g8
tp2926
a(I177
I66
g8
tp2927
a(I181
I47
g12
tp2928
a(I85
I53
g14
tp2929
a(I179
I66
g14
tp2930
a(I246
I61
g14
tp2931
asS'tmpe0DN6m'
p2932
(lp2933
sS'tmpuZSiv0'
p2934
(lp2935
sS'tmpAynb_s'
p2936
(lp2937
sS'tmpVMHANa'
p2938
(lp2939
sS'tmpF2uijO'
p2940
(lp2941
(I209
I40
g62
tp2942
asS'tmp41N6lJ'
p2943
(lp2944
(I243
I104
g8
tp2945
a(I171
I99
g8
tp2946
a(I167
I105
g12
tp2947
a(I72
I95
g14
tp2948
a(I176
I104
g14
tp2949
a(I243
I109
g14
tp2950
asS'tmpc761zS'
p2951
(lp2952
sS'tmpcJlVbM'
p2953
(lp2954
sS'tmp9hfRgm'
p2955
(lp2956
(I78
I102
g8
tp2957
a(I159
I91
g8
tp2958
a(I177
I101
g12
tp2959
a(I77
I107
g14
tp2960
a(I155
I96
g14
tp2961
a(I248
I104
g14
tp2962
asS'tmpPOsqnc'
p2963
(lp2964
(I144
I91
g62
tp2965
asS'tmpXn_1OO'
p2966
(lp2967
sS'tmpmCeY5V'
p2968
(lp2969
sS'tmpmFFpWO'
p2970
(lp2971
sS'tmpcjRze6'
p2972
(lp2973
sS'tmpmKkCJi'
p2974
(lp2975
sS'tmpJT7Z4c'
p2976
(lp2977
sS'tmpPvGeZc'
p2978
(lp2979
sS'tmpnfLWeX'
p2980
(lp2981
sS'tmpyEjgLJ'
p2982
(lp2983
sS'tmpLGkIbU'
p2984
(lp2985
sS'tmpXFp6gg'
p2986
(lp2987
sS'tmpCSRzXA'
p2988
(lp2989
(I54
I94
g8
tp2990
a(I150
I116
g8
tp2991
a(I212
I101
g8
tp2992
a(I152
I89
g12
tp2993
a(I54
I99
g14
tp2994
a(I147
I120
g14
tp2995
a(I216
I112
g14
tp2996
asS'tmpxTwPcz'
p2997
(lp2998
sS'tmpxVQ4N1'
p2999
(lp3000
sS'tmp8LriFB'
p3001
(lp3002
(I165
I113
g8
tp3003
a(I69
I110
g8
tp3004
a(I248
I102
g12
tp3005
a(I63
I102
g14
tp3006
a(I166
I115
g14
tp3007
a(I245
I108
g14
tp3008
asS'tmpeZYcLk'
p3009
(lp3010
sS'tmp6OOyQk'
p3011
(lp3012
(I246
I57
g8
tp3013
a(I270
I42
g12
tp3014
a(I79
I44
g14
tp3015
a(I246
I57
g14
tp3016
asS'tmpjxJTUK'
p3017
(lp3018
sS'tmpO38Z30'
p3019
(lp3020
sS'tmpdhTtgO'
p3021
(lp3022
sS'tmploOIgk'
p3023
(lp3024
sS'tmpGvC3qv'
p3025
(lp3026
(I168
I43
g62
tp3027
asS'tmpYaohwG'
p3028
(lp3029
sS'tmpsiib4b'
p3030
(lp3031
sS'tmpaiPCo0'
p3032
(lp3033
sS'tmp2ZFwzV'
p3034
(lp3035
(I183
I109
g294
tp3036
a(I258
I112
g294
tp3037
a(I173
I100
g12
tp3038
a(I77
I100
g14
tp3039
a(I179
I101
g14
tp3040
a(I253
I106
g14
tp3041
asS'tmpY3i2lt'
p3042
(lp3043
sS'tmpNH6BuF'
p3044
(lp3045
sS'tmpDhoeGM'
p3046
(lp3047
(I160
I110
g8
tp3048
a(I72
I92
g8
tp3049
a(I264
I99
g12
tp3050
a(I70
I95
g14
tp3051
a(I162
I109
g14
tp3052
a(I235
I120
g14
tp3053
asS'tmpwx16Od'
p3054
(lp3055
sS'tmpSLygoz'
p3056
(lp3057
sS'tmpM23FQI'
p3058
(lp3059
sS'tmpgFDFW0'
p3060
(lp3061
sS'tmpaWAhop'
p3062
(lp3063
sS'tmpcYUXAQ'
p3064
(lp3065
sS'tmpK04IaU'
p3066
(lp3067
sS'tmpNmsJZv'
p3068
(lp3069
sS'tmpIWfpop'
p3070
(lp3071
(I61
I111
g8
tp3072
a(I160
I121
g8
tp3073
a(I255
I115
g8
tp3074
a(I62
I111
g14
tp3075
a(I163
I114
g14
tp3076
a(I253
I115
g14
tp3077
asS'tmpg2mt80'
p3078
(lp3079
sS'tmpdnQyJ8'
p3080
(lp3081
sS'tmp9V5whA'
p3082
(lp3083
(I71
I133
g8
tp3084
a(I166
I123
g8
tp3085
a(I239
I119
g8
tp3086
a(I180
I98
g12
tp3087
a(I77
I126
g14
tp3088
a(I167
I124
g14
tp3089
a(I237
I124
g14
tp3090
asS'tmpdd4LHZ'
p3091
(lp3092
sS'tmp3xKShk'
p3093
(lp3094
(I71
I24
g62
tp3095
asS'tmp8wvAi0'
p3096
(lp3097
(I174
I55
g8
tp3098
a(I75
I34
g8
tp3099
a(I238
I72
g12
tp3100
a(I81
I41
g14
tp3101
a(I176
I60
g14
tp3102
a(I255
I47
g14
tp3103
asS'tmpo972h6'
p3104
(lp3105
sS'tmpXIEQdq'
p3106
(lp3107
sS'tmph5KYQ6'
p3108
(lp3109
sS'tmpHci1qK'
p3110
(lp3111
(I80
I70
g62
tp3112
asS'tmptzk4Ue'
p3113
(lp3114
sS'tmp4kOaj0'
p3115
(lp3116
(I79
I87
g8
tp3117
a(I246
I104
g12
tp3118
a(I74
I91
g14
tp3119
a(I167
I101
g14
tp3120
a(I246
I99
g14
tp3121
asS'tmpt4PQGc'
p3122
(lp3123
sS'tmp6uf0Au'
p3124
(lp3125
(I78
I98
g8
tp3126
a(I174
I98
g12
tp3127
a(I81
I91
g14
tp3128
asS'tmpQIVVWQ'
p3129
(lp3130
sS'tmpDh1lyp'
p3131
(lp3132
(I163
I119
g8
tp3133
a(I175
I104
g12
tp3134
a(I63
I98
g14
tp3135
a(I167
I116
g14
tp3136
asS'tmpVbch8A'
p3137
(lp3138
sS'tmpx4hopM'
p3139
(lp3140
sS'tmp1P566V'
p3141
(lp3142
(I77
I98
g38
tp3143
a(I167
I99
g38
tp3144
a(I167
I100
g12
tp3145
a(I76
I96
g14
tp3146
a(I162
I98
g14
tp3147
a(I247
I96
g14
tp3148
asS'tmpKsdIBg'
p3149
(lp3150
sS'tmppPnaz2'
p3151
(lp3152
sS'tmpFUFWr5'
p3153
(lp3154
(I164
I103
g8
tp3155
a(I263
I101
g12
tp3156
a(I76
I98
g14
tp3157
a(I164
I109
g14
tp3158
a(I253
I104
g14
tp3159
asS'tmpHQtKys'
p3160
(lp3161
(I83
I47
g8
tp3162
a(I175
I67
g8
tp3163
a(I236
I61
g8
tp3164
a(I79
I55
g14
tp3165
a(I177
I69
g14
tp3166
a(I236
I68
g14
tp3167
asS'tmpTIC93p'
p3168
(lp3169
(I71
I62
g62
tp3170
asS'tmpfAquvf'
p3171
(lp3172
sS'tmpcUTjt0'
p3173
(lp3174
sS'tmpN0FlmE'
p3175
(lp3176
sS'tmppUQGVZ'
p3177
(lp3178
sS'tmpBr4FNS'
p3179
(lp3180
(I166
I107
g8
tp3181
a(I258
I99
g12
tp3182
a(I74
I99
g14
tp3183
a(I168
I105
g14
tp3184
a(I244
I117
g14
tp3185
asS'tmpnmzVH1'
p3186
(lp3187
sS'tmpf5DKg6'
p3188
(lp3189
sS'tmpxOlMJ3'
p3190
(lp3191
sS'tmpZE1Q0Q'
p3192
(lp3193
sS'tmpOvfwHw'
p3194
(lp3195
sS'tmpV5Q5LR'
p3196
(lp3197
sS'tmpGMGavZ'
p3198
(lp3199
(I57
I96
g8
tp3200
a(I203
I113
g12
tp3201
a(I60
I98
g14
tp3202
a(I198
I108
g14
tp3203
asS'tmpYkgmFc'
p3204
(lp3205
sS'tmpn4a3xk'
p3206
(lp3207
sS'tmpv5FfgA'
p3208
(lp3209
sS'tmpwLj3D5'
p3210
(lp3211
sS'tmpasHgzw'
p3212
(lp3213
sS'tmpbqDpCI'
p3214
(lp3215
sS'tmpFK6QsS'
p3216
(lp3217
(I171
I104
g8
tp3218
a(I75
I87
g8
tp3219
a(I256
I97
g12
tp3220
a(I79
I98
g14
tp3221
a(I175
I113
g14
tp3222
a(I260
I103
g14
tp3223
asS'tmpnVsoM4'
p3224
(lp3225
sS'tmp3mzMIo'
p3226
(lp3227
(I170
I120
g8
tp3228
a(I236
I119
g8
tp3229
a(I268
I103
g12
tp3230
a(I234
I115
g14
tp3231
a(I172
I112
g14
tp3232
a(I71
I111
g14
tp3233
asS'tmpsi7gkK'
p3234
(lp3235
sS'tmpjor0Jo'
p3236
(lp3237
sS'tmpfPaROi'
p3238
(lp3239
sS'tmpSWn1Ky'
p3240
(lp3241
sS'tmpqAaHsn'
p3242
(lp3243
sS'tmp1o8Mc8'
p3244
(lp3245
(I73
I56
g62
tp3246
asS'tmpBgp00c'
p3247
(lp3248
(I161
I105
g8
tp3249
a(I250
I102
g12
tp3250
a(I76
I96
g14
tp3251
a(I168
I109
g14
tp3252
a(I244
I106
g14
tp3253
asS'tmpdmPOIQ'
p3254
(lp3255
sS'tmpe6a1lr'
p3256
(lp3257
sS'tmpyulQkl'
p3258
(lp3259
sS'tmpvOYxs3'
p3260
(lp3261
sS'tmpFxp8vG'
p3262
(lp3263
(I176
I59
g62
tp3264
asS'tmppzJQGN'
p3265
(lp3266
sS'tmp8oPj9Y'
p3267
(lp3268
(I75
I106
g8
tp3269
a(I168
I112
g8
tp3270
a(I260
I102
g12
tp3271
a(I72
I113
g14
tp3272
a(I170
I117
g14
tp3273
a(I261
I114
g14
tp3274
asS'tmp3MCkBl'
p3275
(lp3276
(I165
I120
g8
tp3277
a(I237
I119
g8
tp3278
a(I267
I104
g12
tp3279
a(I64
I105
g14
tp3280
a(I166
I117
g14
tp3281
a(I242
I123
g14
tp3282
asS'tmpsoUjQU'
p3283
(lp3284
sS'tmptIizj6'
p3285
(lp3286
sS'tmpqyKUjI'
p3287
(lp3288
sS'tmpdmfDjq'
p3289
(lp3290
sS'tmp13FM0e'
p3291
(lp3292
(I69
I90
g38
tp3293
a(I165
I100
g38
tp3294
a(I163
I98
g12
tp3295
a(I71
I95
g14
tp3296
a(I161
I97
g14
tp3297
a(I242
I103
g14
tp3298
asS'tmpytkgrZ'
p3299
(lp3300
sS'tmpozBSNf'
p3301
(lp3302
sS'tmpXrjp4Q'
p3303
(lp3304
sS'tmp6xW2YE'
p3305
(lp3306
(I180
I57
g62
tp3307
a(I78
I40
g62
tp3308
asS'tmpLBxGpd'
p3309
(lp3310
(I83
I89
g10
tp3311
asS'tmpv1jDlU'
p3312
(lp3313
sS'tmp4qFFCy'
p3314
(lp3315
(I172
I100
g12
tp3316
a(I67
I77
g14
tp3317
a(I237
I110
g14
tp3318
asS'tmpuv6xXX'
p3319
(lp3320
sS'tmpOdSzNe'
p3321
(lp3322
sS'tmp5ilPWQ'
p3323
(lp3324
(I175
I56
g8
tp3325
a(I244
I50
g8
tp3326
a(I268
I45
g12
tp3327
a(I84
I48
g14
tp3328
a(I176
I55
g14
tp3329
a(I241
I56
g14
tp3330
asS'tmpGZJcsU'
p3331
(lp3332
(I159
I90
g8
tp3333
a(I244
I98
g12
tp3334
a(I77
I81
g14
tp3335
a(I155
I99
g14
tp3336
a(I234
I100
g14
tp3337
asS'tmppu2G2l'
p3338
(lp3339
sS'tmpm6WYct'
p3340
(lp3341
sS'tmpteMJGo'
p3342
(lp3343
sS'tmp3FAUiv'
p3344
(lp3345
(I169
I114
g8
tp3346
a(I70
I115
g8
tp3347
a(I244
I117
g8
tp3348
a(I251
I103
g12
tp3349
a(I75
I105
g14
tp3350
a(I167
I119
g14
tp3351
a(I244
I113
g14
tp3352
asS'tmpD2Ng4w'
p3353
(lp3354
(I168
I104
g8
tp3355
a(I244
I101
g12
tp3356
a(I74
I91
g14
tp3357
a(I164
I105
g14
tp3358
a(I239
I106
g14
tp3359
asS'tmpZdyRX1'
p3360
(lp3361
sS'tmpKgSy_y'
p3362
(lp3363
sS'tmpgwTdRm'
p3364
(lp3365
sS'tmpuamBH9'
p3366
(lp3367
sS'tmp2gHK9T'
p3368
(lp3369
(I77
I71
g62
tp3370
asS'tmp79e5xo'
p3371
(lp3372
(I68
I110
g8
tp3373
a(I158
I112
g8
tp3374
a(I250
I114
g8
tp3375
a(I166
I99
g12
tp3376
a(I68
I110
g14
tp3377
a(I159
I112
g14
tp3378
a(I248
I113
g14
tp3379
asS'tmpdu2n2h'
p3380
(lp3381
sS'tmpK6CQk8'
p3382
(lp3383
sS'tmpy0hVrH'
p3384
(lp3385
sS'tmpbcqGyl'
p3386
(lp3387
sS'tmpGYOVZO'
p3388
(lp3389
sS'tmpvurpDY'
p3390
(lp3391
sS'tmpKPdr3T'
p3392
(lp3393
(I83
I44
g62
tp3394
a(I179
I55
g62
tp3395
asS'tmpT_opfH'
p3396
(lp3397
s.