(dp1
S'tmp_mWhYh'
p2
(lp3
sS'tmpqzvx74'
p4
(lp5
sS'tmp75Gkuu'
p6
(lp7
(I168
I100
S'back'
p8
tp9
a(I73
I91
S'empty'
p10
tp11
a(I255
I100
S'head'
p12
tp13
a(I166
I99
S'card'
p14
tp15
a(I249
I98
g14
tp16
asS'tmp8RfwpD'
p17
(lp18
(I171
I110
g8
tp19
a(I251
I97
g12
tp20
a(I78
I103
g14
tp21
a(I164
I109
g14
tp22
a(I251
I108
g14
tp23
asS'tmpG3E_gG'
p24
(lp25
(I69
I94
g8
tp26
a(I279
I113
g12
tp27
a(I75
I98
g14
tp28
asS'tmpF7regW'
p29
(lp30
(I169
I59
g8
tp31
a(I80
I47
g8
tp32
a(I266
I43
g12
tp33
a(I78
I52
g14
tp34
a(I171
I68
g14
tp35
a(I233
I68
g14
tp36
asS'tmpitt9YW'
p37
(lp38
sS'tmpdNwoVt'
p39
(lp40
sS'tmpMzVNIG'
p41
(lp42
sS'tmpBPIcTE'
p43
(lp44
(I104
I62
S'back'
p45
tp46
asS'tmp7HRQqL'
p47
(lp48
(I165
I98
g8
tp49
a(I73
I91
g10
tp50
a(I244
I103
g12
tp51
a(I171
I107
g14
tp52
a(I239
I96
g14
tp53
asS'tmpZfP9Z3'
p54
(lp55
sS'tmpblWN83'
p56
(lp57
sS'tmpl76EQs'
p58
(lp59
sS'tmpnLOLZX'
p60
(lp61
sS'tmpLPUHqH'
p62
(lp63
sS'tmpkHUqTB'
p64
(lp65
sS'tmpdKPpqS'
p66
(lp67
sS'tmpjF7YdM'
p68
(lp69
sS'tmpJtEZtu'
p70
(lp71
sS'tmpkvMxFZ'
p72
(lp73
sS'tmp_vY9NB'
p74
(lp75
sS'tmpFKRlqg'
p76
(lp77
(I179
I101
g8
tp78
a(I257
I101
g12
tp79
a(I66
I87
g14
tp80
a(I172
I102
g14
tp81
a(I247
I105
g14
tp82
asS'tmpIw_8L0'
p83
(lp84
sS'tmpNIrnmw'
p85
(lp86
(I183
I68
g45
tp87
asS'tmp4pNt5Q'
p88
(lp89
(I159
I60
g8
tp90
a(I82
I58
g8
tp91
a(I193
I49
g12
tp92
a(I86
I64
g14
tp93
a(I167
I61
g14
tp94
a(I244
I61
g14
tp95
asS'tmpOslL8O'
p96
(lp97
(I173
I55
g45
tp98
asS'tmp1zE45F'
p99
(lp100
(I229
I93
g45
tp101
a(I181
I77
g45
tp102
asS'tmp3Q_cxq'
p103
(lp104
(I73
I100
g8
tp105
a(I170
I103
g8
tp106
a(I171
I97
g12
tp107
a(I74
I104
g14
tp108
a(I170
I104
g14
tp109
a(I257
I113
g14
tp110
asS'tmp8NhmkG'
p111
(lp112
(I174
I59
g45
tp113
asS'tmpXURTJc'
p114
(lp115
sS'tmpgjudM6'
p116
(lp117
sS'tmpUYvWaM'
p118
(lp119
sS'tmps69nSs'
p120
(lp121
sS'tmpqbNDSC'
p122
(lp123
sS'tmp4Ci53G'
p124
(lp125
(I175
I93
g8
tp126
a(I164
I100
g12
tp127
a(I84
I89
g14
tp128
a(I167
I97
g14
tp129
a(I258
I92
g14
tp130
asS'tmpLyIHPD'
p131
(lp132
(I82
I56
g45
tp133
asS'tmpgrQ82j'
p134
(lp135
sS'tmp3PCsy5'
p136
(lp137
(I71
I82
g8
tp138
a(I234
I105
g8
tp139
a(I175
I100
g12
tp140
a(I80
I90
g14
tp141
a(I234
I99
g14
tp142
asS'tmpKZVUwT'
p143
(lp144
sS'tmpPKGDma'
p145
(lp146
sS'tmpWrvlV1'
p147
(lp148
sS'tmp2niOIl'
p149
(lp150
(I172
I102
g8
tp151
a(I251
I102
g12
tp152
a(I78
I96
g14
tp153
a(I175
I115
g14
tp154
a(I257
I105
g14
tp155
asS'tmpbP0WzS'
p156
(lp157
sS'tmpQIUCm8'
p158
(lp159
sS'tmpuT8_K_'
p160
(lp161
sS'tmpCJWjE8'
p162
(lp163
(I81
I54
g45
tp164
a(I170
I75
g45
tp165
asS'tmpiUDBT0'
p166
(lp167
sS'tmp2g76Kf'
p168
(lp169
(I163
I115
g8
tp170
a(I255
I106
g12
tp171
a(I85
I105
g14
tp172
a(I163
I122
g14
tp173
a(I253
I112
g14
tp174
asS'tmpwPaUK2'
p175
(lp176
sS'tmpFfeovW'
p177
(lp178
(I255
I101
g12
tp179
a(I72
I102
g14
tp180
asS'tmpRPF9vq'
p181
(lp182
(I172
I68
g45
tp183
asS'tmpfEz9O2'
p184
(lp185
sS'tmp9ULyge'
p186
(lp187
(I168
I123
g8
tp188
a(I163
I103
g12
tp189
a(I81
I107
g14
tp190
a(I161
I122
g14
tp191
a(I256
I117
g14
tp192
asS'tmpj626hH'
p193
(lp194
sS'tmpDQH2hf'
p195
(lp196
(I85
I49
g45
tp197
a(I183
I52
g45
tp198
asS'tmpYr_u5h'
p199
(lp200
sS'tmpcdU7ye'
p201
(lp202
sS'tmpAxebAw'
p203
(lp204
(I167
I111
g8
tp205
a(I248
I102
g12
tp206
a(I73
I98
g14
tp207
a(I174
I116
g14
tp208
a(I252
I116
g14
tp209
asS'tmpg3Sl2b'
p210
(lp211
sS'tmpKOqgbg'
p212
(lp213
(I180
I53
g45
tp214
a(I83
I44
g45
tp215
asS'tmpcmzBBX'
p216
(lp217
sS'tmp3W94mW'
p218
(lp219
(I170
I105
g8
tp220
a(I174
I99
g12
tp221
a(I67
I96
g14
tp222
a(I170
I103
g14
tp223
a(I237
I107
g14
tp224
asS'tmpTX21MN'
p225
(lp226
sS'tmpTp560a'
p227
(lp228
sS'tmp_cUThv'
p229
(lp230
sS'tmp5MHSQV'
p231
(lp232
(I66
I66
g8
tp233
a(I255
I97
g12
tp234
a(I71
I74
g14
tp235
a(I227
I88
g14
tp236
asS'tmpYmwss4'
p237
(lp238
sS'tmpocydkg'
p239
(lp240
sS'tmp9P0PAa'
p241
(lp242
(I79
I45
g45
tp243
a(I181
I57
g45
tp244
asS'tmpXE22Y6'
p245
(lp246
sS'tmpwlHzPp'
p247
(lp248
sS'tmpnSN5RJ'
p249
(lp250
sS'tmpf0pc2K'
p251
(lp252
sS'tmpjY3Lho'
p253
(lp254
sS'tmpeZqj6c'
p255
(lp256
sS'tmp1kXDHr'
p257
(lp258
(I73
I103
S'back'
p259
tp260
a(I167
I112
g259
tp261
a(I244
I110
g259
tp262
a(I244
I104
g12
tp263
a(I77
I108
g14
tp264
a(I172
I107
g14
tp265
a(I238
I110
g14
tp266
asS'tmpi1BN7y'
p267
(lp268
sS'tmp_SGUJA'
p269
(lp270
sS'tmpv_8lVR'
p271
(lp272
sS'tmpWIw4K2'
p273
(lp274
sS'tmpgya2u4'
p275
(lp276
sS'tmp2Maxj9'
p277
(lp278
(I162
I110
S'back'
p279
tp280
a(I256
I98
g279
tp281
a(I261
I101
g12
tp282
a(I70
I93
g14
tp283
a(I169
I115
g14
tp284
a(I249
I101
g14
tp285
asS'tmp2kL7OM'
p286
(lp287
(I185
I64
g45
tp288
asS'tmpch1mce'
p289
(lp290
sS'tmpbrYYq5'
p291
(lp292
sS'tmpUswQJw'
p293
(lp294
sS'tmpkioKJZ'
p295
(lp296
sS'tmpzlb9Ez'
p297
(lp298
sS'tmpCoda5t'
p299
(lp300
(I84
I53
g8
tp301
a(I174
I64
g8
tp302
a(I239
I54
g8
tp303
a(I177
I46
g12
tp304
a(I85
I58
g14
tp305
a(I171
I69
g14
tp306
a(I237
I62
g14
tp307
asS'tmpzFCQLY'
p308
(lp309
sS'tmp2akNBL'
p310
(lp311
(I66
I84
g279
tp312
a(I278
I109
g12
tp313
a(I75
I86
g14
tp314
asS'tmpqKUG4W'
p315
(lp316
sS'tmp4_UubO'
p317
(lp318
(I177
I69
g45
tp319
a(I77
I50
g45
tp320
asS'tmpdtwkrg'
p321
(lp322
sS'tmpx6YLcS'
p323
(lp324
sS'tmpCU6Ena'
p325
(lp326
(I93
I83
g45
tp327
a(I182
I86
g45
tp328
asS'tmpOodJqU'
p329
(lp330
sS'tmprJOYDX'
p331
(lp332
sS'tmp13jbSQ'
p333
(lp334
(I254
I109
g12
tp335
a(I67
I95
g14
tp336
asS'tmpLpDat_'
p337
(lp338
sS'tmpMm15uW'
p339
(lp340
(I183
I96
g45
tp341
asS'tmppumegR'
p342
(lp343
sS'tmpRqzSXT'
p344
(lp345
sS'tmpz1LXPE'
p346
(lp347
sS'tmpCXpO_W'
p348
(lp349
(I78
I57
g45
tp350
a(I179
I70
g45
tp351
asS'tmpSGJ0sT'
p352
(lp353
sS'tmpuUIEup'
p354
(lp355
sS'tmpuKqWHM'
p356
(lp357
sS'tmp0ZiylJ'
p358
(lp359
(I172
I59
g45
tp360
asS'tmp3eLr4q'
p361
(lp362
(I153
I117
g8
tp363
a(I68
I101
g8
tp364
a(I257
I101
g12
tp365
a(I147
I115
g14
tp366
a(I57
I102
g14
tp367
a(I249
I112
g14
tp368
asS'tmpCVYz5h'
p369
(lp370
(I160
I110
g8
tp371
a(I260
I98
g8
tp372
a(I71
I104
g8
tp373
a(I258
I96
g12
tp374
a(I78
I103
g14
tp375
a(I167
I114
g14
tp376
a(I255
I104
g14
tp377
asS'tmpJovJCF'
p378
(lp379
sS'tmp0_G7IE'
p380
(lp381
(I73
I107
S'back'
p382
tp383
a(I171
I105
g382
tp384
a(I256
I103
g12
tp385
a(I73
I106
g14
tp386
a(I173
I106
g14
tp387
a(I257
I113
g14
tp388
asS'tmpcD1aWc'
p389
(lp390
sS'tmp48GC7M'
p391
(lp392
(I172
I76
g45
tp393
asS'tmpveWoDy'
p394
(lp395
sS'tmp9mIFar'
p396
(lp397
(I72
I106
g8
tp398
a(I169
I121
g8
tp399
a(I176
I97
g12
tp400
a(I73
I112
g14
tp401
a(I167
I123
g14
tp402
a(I257
I115
g14
tp403
asS'tmpqeKq96'
p404
(lp405
sS'tmpZQFYx4'
p406
(lp407
sS'tmpGrEwlR'
p408
(lp409
(I175
I51
g45
tp410
asS'tmpCjp_1x'
p411
(lp412
(I89
I67
g45
tp413
a(I174
I89
g45
tp414
asS'tmpBZXy8X'
p415
(lp416
(I161
I116
g8
tp417
a(I258
I114
g8
tp418
a(I261
I98
g12
tp419
a(I69
I111
g14
tp420
a(I156
I120
g14
tp421
a(I254
I121
g14
tp422
asS'tmpZRA0Ai'
p423
(lp424
sS'tmpMAGgZq'
p425
(lp426
sS'tmplmnQDb'
p427
(lp428
sS'tmpKq1jYO'
p429
(lp430
sS'tmpvClQjD'
p431
(lp432
sS'tmpv4ISbu'
p433
(lp434
sS'tmpYQVxGC'
p435
(lp436
sS'tmpUKzBtg'
p437
(lp438
sS'tmps6iC9U'
p439
(lp440
sS'tmpgcQsdb'
p441
(lp442
sS'tmp6Bx1rr'
p443
(lp444
(I176
I67
g45
tp445
asS'tmp4o9bL0'
p446
(lp447
(I167
I113
g8
tp448
a(I70
I96
g8
tp449
a(I244
I103
g8
tp450
a(I243
I102
g12
tp451
a(I69
I97
g14
tp452
a(I166
I112
g14
tp453
a(I243
I107
g14
tp454
asS'tmpsC3lfN'
p455
(lp456
sS'tmpJxuQYx'
p457
(lp458
sS'tmpAhzlGr'
p459
(lp460
(I162
I117
g8
tp461
a(I258
I100
g12
tp462
a(I71
I102
g14
tp463
a(I159
I116
g14
tp464
a(I248
I120
g14
tp465
asS'tmp57yR2b'
p466
(lp467
(I164
I123
g8
tp468
a(I251
I112
g8
tp469
a(I258
I97
g12
tp470
a(I68
I104
g14
tp471
a(I159
I112
g14
tp472
a(I255
I116
g14
tp473
asS'tmpUNpFhr'
p474
(lp475
sS'tmp6Qp1Cr'
p476
(lp477
(I180
I61
g45
tp478
asS'tmpMIEBBr'
p479
(lp480
sS'tmpXpDgv2'
p481
(lp482
sS'tmpdu2n2h'
p483
(lp484
sS'tmpfEf17t'
p485
(lp486
sS'tmplXVR7M'
p487
(lp488
sS'tmpfi1RXE'
p489
(lp490
sS'tmpUrmCCI'
p491
(lp492
sS'tmpFQEPMI'
p493
(lp494
(I75
I99
g8
tp495
a(I180
I104
g8
tp496
a(I184
I94
g12
tp497
a(I81
I101
g14
tp498
a(I180
I106
g14
tp499
a(I248
I112
g14
tp500
asS'tmp2McwTA'
p501
(lp502
(I172
I103
g279
tp503
a(I251
I100
g12
tp504
a(I75
I90
g14
tp505
a(I168
I109
g14
tp506
a(I246
I96
g14
tp507
asS'tmplcPevQ'
p508
(lp509
sS'tmpQkr8C1'
p510
(lp511
sS'tmpKoP8Rq'
p512
(lp513
sS'tmp7PBsNM'
p514
(lp515
(I81
I40
g45
tp516
a(I177
I52
g45
tp517
asS'tmpCdqEod'
p518
(lp519
(I184
I93
g45
tp520
asS'tmpqAaHsn'
p521
(lp522
sS'tmp_zLx74'
p523
(lp524
sS'tmpKM7FWy'
p525
(lp526
(I80
I46
g45
tp527
a(I180
I52
g45
tp528
asS'tmp1ihnBF'
p529
(lp530
(I171
I62
g45
tp531
asS'tmpm50WZl'
p532
(lp533
sS'tmpLd37Zt'
p534
(lp535
sS'tmpPwSreF'
p536
(lp537
sS'tmpS0tj5y'
p538
(lp539
(I168
I41
g45
tp540
asS'tmp4Sq7Ro'
p541
(lp542
sS'tmpgfv9xg'
p543
(lp544
sS'tmpdhArYk'
p545
(lp546
sS'tmp3uQ4rw'
p547
(lp548
(I159
I103
g8
tp549
a(I257
I99
g12
tp550
a(I77
I99
g14
tp551
a(I169
I103
g14
tp552
a(I259
I101
g14
tp553
asS'tmpV2ia3M'
p554
(lp555
sS'tmppQJHpa'
p556
(lp557
sS'tmpjb2hU2'
p558
(lp559
sS'tmpXX7l4l'
p560
(lp561
sS'tmpjOEuKx'
p562
(lp563
sS'tmparvXWm'
p564
(lp565
sS'tmpb_28ip'
p566
(lp567
sS'tmpQ2CIHj'
p568
(lp569
sS'tmpwPU5pE'
p570
(lp571
sS'tmpakw0YC'
p572
(lp573
sS'tmpPGnEPZ'
p574
(lp575
sS'tmp1mjDg3'
p576
(lp577
(I67
I115
g279
tp578
a(I163
I109
g279
tp579
a(I246
I116
g279
tp580
a(I248
I102
g12
tp581
a(I66
I103
g14
tp582
a(I160
I114
g14
tp583
a(I241
I109
g14
tp584
asS'tmpQDCZxD'
p585
(lp586
sS'tmpY3i2lt'
p587
(lp588
sS'tmpeS8aFS'
p589
(lp590
sS'tmp3sUrmM'
p591
(lp592
(I172
I42
g45
tp593
a(I95
I41
g45
tp594
a(I4
I29
g45
tp595
asS'tmpJF9oMM'
p596
(lp597
sS'tmpBCW_jW'
p598
(lp599
(I68
I86
g8
tp600
a(I171
I95
g12
tp601
a(I74
I93
g14
tp602
asS'tmp1u20JS'
p603
(lp604
(I75
I88
g279
tp605
a(I259
I96
g12
tp606
a(I76
I95
g14
tp607
asS'tmpBAhl8y'
p608
(lp609
(I59
I105
g8
tp610
a(I261
I102
g12
tp611
a(I52
I111
g14
tp612
a(I131
I124
g14
tp613
a(I245
I121
g14
tp614
asS'tmpaMuXhM'
p615
(lp616
sS'tmpfCBG13'
p617
(lp618
sS'tmpGvCJJc'
p619
(lp620
(I247
I113
g8
tp621
a(I178
I113
g8
tp622
a(I76
I104
g14
tp623
a(I173
I112
g14
tp624
a(I251
I118
g14
tp625
asS'tmp_XNyQF'
p626
(lp627
sS'tmpDmQAzQ'
p628
(lp629
(I178
I66
g45
tp630
a(I81
I49
g45
tp631
asS'tmpyS49ko'
p632
(lp633
sS'tmpemjquv'
p634
(lp635
sS'tmpwIv3es'
p636
(lp637
sS'tmpZzSJ6O'
p638
(lp639
sS'tmpgSB1l3'
p640
(lp641
sS'tmpLMfUAy'
p642
(lp643
(I174
I89
g45
tp644
a(I92
I68
g45
tp645
asS'tmpbc8QPq'
p646
(lp647
sS'tmpuN_Pxv'
p648
(lp649
sS'tmpKDYTzG'
p650
(lp651
sS'tmp3SP0z9'
p652
(lp653
(I72
I93
g8
tp654
a(I156
I96
g8
tp655
a(I255
I104
g12
tp656
a(I75
I93
g14
tp657
a(I158
I103
g14
tp658
a(I255
I98
g14
tp659
asS'tmpiguYqw'
p660
(lp661
sS'tmpL1QALU'
p662
(lp663
sS'tmpHnhxYi'
p664
(lp665
(I77
I103
g8
tp666
a(I161
I72
g8
tp667
a(I77
I103
g14
tp668
a(I162
I73
g14
tp669
a(I255
I105
g14
tp670
asS'tmp0NSmyk'
p671
(lp672
(I84
I93
g382
tp673
a(I174
I105
g382
tp674
a(I277
I109
g12
tp675
a(I82
I88
g14
tp676
a(I175
I100
g14
tp677
a(I249
I102
g14
tp678
asS'tmpkODR3F'
p679
(lp680
sS'tmpD3ckej'
p681
(lp682
(I167
I105
g8
tp683
a(I248
I105
g12
tp684
a(I65
I96
g14
tp685
a(I171
I109
g14
tp686
a(I244
I109
g14
tp687
asS'tmpS_32Hk'
p688
(lp689
sS'tmpYPSkej'
p690
(lp691
sS'tmpTIp6UU'
p692
(lp693
(I80
I71
g45
tp694
a(I177
I61
g45
tp695
asS'tmpiGMBEB'
p696
(lp697
sS'tmpU6Kxn0'
p698
(lp699
sS'tmpvtAKs8'
p700
(lp701
sS'tmpsJyEKn'
p702
(lp703
sS'tmpOyT_0p'
p704
(lp705
sS'tmpQ_aIRt'
p706
(lp707
sS'tmpok5sgv'
p708
(lp709
sS'tmpy8lOMy'
p710
(lp711
sS'tmpk8Aix4'
p712
(lp713
sS'tmpNsWw_B'
p714
(lp715
sS'tmpPRQcsD'
p716
(lp717
sS'tmptpxQvi'
p718
(lp719
sS'tmpEhF2WY'
p720
(lp721
(I168
I70
g45
tp722
asS'tmpTBeDkD'
p723
(lp724
(I78
I64
g45
tp725
a(I181
I72
g45
tp726
asS'tmpBiCque'
p727
(lp728
(I159
I106
g8
tp729
a(I77
I99
g8
tp730
a(I259
I99
g12
tp731
a(I80
I94
g14
tp732
a(I159
I110
g14
tp733
a(I254
I111
g14
tp734
asS'tmpVri5YA'
p735
(lp736
sS'tmpOhR2PY'
p737
(lp738
(I179
I55
g45
tp739
asS'tmpK76YZ6'
p740
(lp741
(I81
I54
g45
tp742
asS'tmp0sOfR1'
p743
(lp744
(I68
I69
g45
tp745
a(I151
I74
g45
tp746
asS'tmpjQHWlH'
p747
(lp748
sS'tmpGFOelr'
p749
(lp750
(I177
I91
g8
tp751
a(I168
I104
g12
tp752
a(I73
I97
g14
tp753
a(I171
I101
g14
tp754
a(I245
I95
g14
tp755
asS'tmpU1f7Ug'
p756
(lp757
sS'tmpF9JkvP'
p758
(lp759
(I80
I99
g8
tp760
a(I184
I107
g8
tp761
a(I185
I98
g12
tp762
a(I83
I94
g14
tp763
a(I179
I105
g14
tp764
a(I251
I107
g14
tp765
asS'tmp2I5ihj'
p766
(lp767
(I89
I56
g45
tp768
a(I179
I58
g45
tp769
asS'tmpDgxHnC'
p770
(lp771
(I267
I44
g12
tp772
a(I78
I54
g14
tp773
a(I241
I61
g14
tp774
asS'tmpQLMTsH'
p775
(lp776
sS'tmpGsJcPp'
p777
(lp778
(I175
I63
g45
tp779
asS'tmpcMnZsN'
p780
(lp781
sS'tmpj0MCSZ'
p782
(lp783
sS'tmp1kfwum'
p784
(lp785
(I169
I89
g259
tp786
a(I84
I87
S'empty'
tp787
a(I249
I103
g12
tp788
a(I167
I99
g14
tp789
a(I251
I89
g14
tp790
asS'tmpRU3F_t'
p791
(lp792
sS'tmptBBMpJ'
p793
(lp794
sS'tmp5bfkvZ'
p795
(lp796
sS'tmppvvTxa'
p797
(lp798
sS'tmpFbalWm'
p799
(lp800
(I73
I109
g8
tp801
a(I178
I103
g12
tp802
a(I66
I113
g14
tp803
asS'tmphsRynL'
p804
(lp805
sS'tmprDBkOr'
p806
(lp807
sS'tmpoXZIgV'
p808
(lp809
sS'tmpOwZ9mY'
p810
(lp811
sS'tmprvTZEm'
p812
(lp813
sS'tmpZATvas'
p814
(lp815
sS'tmpGF4m1J'
p816
(lp817
(I169
I112
g8
tp818
a(I248
I111
g8
tp819
a(I246
I100
g12
tp820
a(I70
I103
g14
tp821
a(I165
I112
g14
tp822
a(I246
I112
g14
tp823
asS'tmpHfGqoF'
p824
(lp825
(I115
I79
g8
tp826
a(I118
I83
g14
tp827
asS'tmpIcOz7P'
p828
(lp829
(I71
I95
g14
tp830
a(I174
I103
g14
tp831
a(I240
I102
g14
tp832
asS'tmpTvYBfy'
p833
(lp834
sS'tmpCyHOlL'
p835
(lp836
(I68
I107
g8
tp837
a(I162
I107
g8
tp838
a(I166
I96
g12
tp839
a(I61
I104
g14
tp840
a(I160
I110
g14
tp841
a(I248
I114
g14
tp842
asS'tmpiLENkY'
p843
(lp844
sS'tmp9CVCPF'
p845
(lp846
(I153
I96
g8
tp847
a(I69
I86
g8
tp848
a(I259
I102
g12
tp849
a(I66
I92
g14
tp850
a(I159
I101
g14
tp851
a(I248
I96
g14
tp852
asS'tmpcLpXNz'
p853
(lp854
sS'tmpGOOZma'
p855
(lp856
(I78
I97
g8
tp857
a(I176
I114
g8
tp858
a(I245
I104
g12
tp859
a(I78
I100
g14
tp860
a(I175
I112
g14
tp861
a(I243
I111
g14
tp862
asS'tmp44XLfp'
p863
(lp864
(I176
I81
g45
tp865
asS'tmp8SdLAC'
p866
(lp867
(I163
I102
g8
tp868
a(I260
I103
g12
tp869
a(I68
I89
g14
tp870
a(I162
I109
g14
tp871
a(I248
I92
g14
tp872
asS'tmpkrXD5D'
p873
(lp874
sS'tmp4NhALY'
p875
(lp876
(I161
I93
g8
tp877
a(I170
I98
g12
tp878
a(I76
I82
g14
tp879
a(I163
I98
g14
tp880
a(I251
I107
g14
tp881
asS'tmp7I5NGr'
p882
(lp883
(I161
I114
g8
tp884
a(I66
I98
g8
tp885
a(I262
I102
g12
tp886
a(I68
I106
g14
tp887
a(I156
I118
g14
tp888
a(I252
I109
g14
tp889
asS'tmp4aOLHj'
p890
(lp891
(I183
I56
g45
tp892
asS'tmp1BFQag'
p893
(lp894
(I167
I110
g259
tp895
a(I273
I104
g12
tp896
a(I69
I93
g14
tp897
a(I159
I102
g14
tp898
a(I235
I109
g14
tp899
asS'tmpmKkCJi'
p900
(lp901
sS'tmpjnHDLc'
p902
(lp903
sS'tmpk6KLr0'
p904
(lp905
sS'tmpFGqKLa'
p906
(lp907
(I82
I93
g8
tp908
a(I177
I112
g8
tp909
a(I248
I102
g12
tp910
a(I75
I98
g14
tp911
a(I172
I103
g14
tp912
a(I247
I112
g14
tp913
asS'tmp4noNUj'
p914
(lp915
(I170
I103
g8
tp916
a(I264
I104
g12
tp917
a(I70
I89
g14
tp918
a(I174
I96
g14
tp919
a(I247
I103
g14
tp920
asS'tmp0ukqvy'
p921
(lp922
(I158
I110
g259
tp923
a(I161
I98
g12
tp924
a(I64
I101
g14
tp925
a(I160
I111
g14
tp926
a(I243
I121
g14
tp927
asS'tmplCMhp3'
p928
(lp929
sS'tmpPY921I'
p930
(lp931
sS'tmpsRBdLB'
p932
(lp933
sS'tmphbqMMU'
p934
(lp935
sS'tmpeZDP7N'
p936
(lp937
sS'tmpIUT7Ca'
p938
(lp939
(I169
I99
g8
tp940
a(I72
I91
g10
tp941
a(I172
I98
g14
tp942
a(I249
I103
g14
tp943
asS'tmpDM0_K9'
p944
(lp945
(I163
I98
g8
tp946
a(I83
I89
g8
tp947
a(I254
I102
g12
tp948
a(I75
I91
g14
tp949
a(I162
I101
g14
tp950
a(I254
I93
g14
tp951
asS'tmpYJrnmR'
p952
(lp953
sS'tmpyo_s8R'
p954
(lp955
sS'tmpHpIR06'
p956
(lp957
(I167
I110
g8
tp958
a(I61
I98
g14
tp959
a(I161
I107
g14
tp960
a(I249
I108
g14
tp961
asS'tmpH9RiEn'
p962
(lp963
(I172
I100
g8
tp964
a(I72
I96
g8
tp965
a(I78
I101
g14
tp966
a(I169
I114
g14
tp967
a(I243
I112
g14
tp968
asS'tmpmjeO17'
p969
(lp970
sS'tmpufFQjO'
p971
(lp972
sS'tmpgtp6o2'
p973
(lp974
sS'tmpi6NCNd'
p975
(lp976
sS'tmpcNo3f0'
p977
(lp978
sS'tmpjZH6B0'
p979
(lp980
sS'tmpzG0JVw'
p981
(lp982
sS'tmpe208Ee'
p983
(lp984
sS'tmpt1gHNK'
p985
(lp986
sS'tmplSkS8i'
p987
(lp988
sS'tmpV5DrmN'
p989
(lp990
sS'tmpWA6Pir'
p991
(lp992
sS'tmpjzAtZI'
p993
(lp994
sS'tmpRLQGv9'
p995
(lp996
(I84
I42
g45
tp997
a(I174
I53
g45
tp998
asS'tmps40jB1'
p999
(lp1000
sS'tmpklJNK1'
p1001
(lp1002
sS'tmpfBR5B6'
p1003
(lp1004
sS'tmpNRRbNz'
p1005
(lp1006
sS'tmpwuM9XC'
p1007
(lp1008
sS'tmpgcYxU3'
p1009
(lp1010
sS'tmpW2_3h_'
p1011
(lp1012
sS'tmpayMJUo'
p1013
(lp1014
sS'tmp5GDZqq'
p1015
(lp1016
(I168
I119
g8
tp1017
a(I70
I108
g8
tp1018
a(I248
I116
g8
tp1019
a(I250
I105
g12
tp1020
a(I74
I111
g14
tp1021
a(I170
I121
g14
tp1022
a(I248
I114
g14
tp1023
asS'tmpJMnotk'
p1024
(lp1025
sS'tmprjzFlx'
p1026
(lp1027
sS'tmpkZ03CL'
p1028
(lp1029
sS'tmps96HdO'
p1030
(lp1031
sS'tmpwSlhrR'
p1032
(lp1033
sS'tmpPzS0hk'
p1034
(lp1035
(I81
I48
g45
tp1036
a(I166
I52
g45
tp1037
asS'tmpxVQ4N1'
p1038
(lp1039
sS'tmpx6eAbz'
p1040
(lp1041
sS'tmprkjfdz'
p1042
(lp1043
sS'tmpXsH1io'
p1044
(lp1045
sS'tmpSNiiCD'
p1046
(lp1047
sS'tmpUWS4Tt'
p1048
(lp1049
sS'tmpi4oeRM'
p1050
(lp1051
sS'tmpeZYcLk'
p1052
(lp1053
sS'tmptLhUpm'
p1054
(lp1055
sS'tmpT0VXAd'
p1056
(lp1057
sS'tmpL2t9RP'
p1058
(lp1059
(I190
I70
g45
tp1060
a(I82
I57
g45
tp1061
asS'tmpBbmbt0'
p1062
(lp1063
(I95
I71
g45
tp1064
a(I207
I68
g45
tp1065
asS'tmp_WK20C'
p1066
(lp1067
sS'tmpJgy1Tk'
p1068
(lp1069
sS'tmpLGKaU6'
p1070
(lp1071
sS'tmp6SuccW'
p1072
(lp1073
(I170
I102
g8
tp1074
a(I245
I102
g12
tp1075
a(I80
I88
g14
tp1076
a(I173
I105
g14
tp1077
a(I241
I107
g14
tp1078
asS'tmpW0IO0H'
p1079
(lp1080
sS'tmpZ5FAXb'
p1081
(lp1082
sS'tmpO2QjB9'
p1083
(lp1084
sS'tmpudaX49'
p1085
(lp1086
sS'tmpxh81Om'
p1087
(lp1088
sS'tmpkGMkyu'
p1089
(lp1090
sS'tmp5rTH9O'
p1091
(lp1092
(I170
I109
g8
tp1093
a(I251
I109
g8
tp1094
a(I244
I98
g12
tp1095
a(I75
I100
g14
tp1096
a(I178
I108
g14
tp1097
a(I249
I110
g14
tp1098
asS'tmpXBbTdn'
p1099
(lp1100
(I170
I63
g45
tp1101
asS'tmpD0fWDE'
p1102
(lp1103
(I75
I108
g8
tp1104
a(I167
I115
g8
tp1105
a(I234
I111
g8
tp1106
a(I255
I103
g12
tp1107
a(I73
I107
g14
tp1108
a(I169
I119
g14
tp1109
a(I234
I118
g14
tp1110
asS'tmppRrQLx'
p1111
(lp1112
sS'tmpPj3PCX'
p1113
(lp1114
sS'tmpEEJCM_'
p1115
(lp1116
(I98
I74
g45
tp1117
a(I186
I97
g45
tp1118
asS'tmprtKj3p'
p1119
(lp1120
sS'tmpIO8ola'
p1121
(lp1122
(I84
I59
g45
tp1123
a(I186
I63
g45
tp1124
asS'tmp90t8B3'
p1125
(lp1126
(I73
I109
g8
tp1127
a(I166
I118
g8
tp1128
a(I241
I112
g8
tp1129
a(I169
I103
g12
tp1130
a(I71
I100
g14
tp1131
a(I165
I116
g14
tp1132
a(I243
I118
g14
tp1133
asS'tmp2Pa0WU'
p1134
(lp1135
(I77
I92
g279
tp1136
a(I174
I112
g279
tp1137
a(I254
I111
g279
tp1138
a(I246
I99
g12
tp1139
a(I82
I99
g14
tp1140
a(I177
I103
g14
tp1141
a(I246
I112
g14
tp1142
asS'tmpKFhiXL'
p1143
(lp1144
(I83
I59
g45
tp1145
a(I184
I70
g45
tp1146
asS'tmplVxlLY'
p1147
(lp1148
sS'tmpBQnaC5'
p1149
(lp1150
(I67
I98
g8
tp1151
a(I221
I105
g12
tp1152
a(I78
I100
g14
tp1153
asS'tmpfXTn5j'
p1154
(lp1155
sS'tmpirDmrM'
p1156
(lp1157
sS'tmptPNI87'
p1158
(lp1159
sS'tmpvfBBK5'
p1160
(lp1161
sS'tmp0pzufr'
p1162
(lp1163
(I80
I93
g382
tp1164
a(I183
I105
g259
tp1165
a(I171
I100
g12
tp1166
a(I251
I102
g14
tp1167
a(I181
I106
g14
tp1168
a(I77
I94
g14
tp1169
asS'tmpGp4JMC'
p1170
(lp1171
(I78
I48
g45
tp1172
a(I170
I63
g45
tp1173
asS'tmpjUbM5Z'
p1174
(lp1175
sS'tmpCzLNdr'
p1176
(lp1177
(I170
I107
g8
tp1178
a(I258
I96
g12
tp1179
a(I81
I99
g14
tp1180
a(I169
I110
g14
tp1181
a(I257
I101
g14
tp1182
asS'tmpjA_Tre'
p1183
(lp1184
sS'tmpD0_pOw'
p1185
(lp1186
(I83
I46
g8
tp1187
a(I173
I57
g8
tp1188
a(I233
I59
g8
tp1189
a(I256
I44
g12
tp1190
a(I78
I56
g14
tp1191
a(I172
I64
g14
tp1192
a(I231
I56
g14
tp1193
asS'tmpYOGiyi'
p1194
(lp1195
sS'tmprrf_4i'
p1196
(lp1197
sS'tmpMdZvJf'
p1198
(lp1199
sS'tmpnTCwaK'
p1200
(lp1201
sS'tmpWu0d1a'
p1202
(lp1203
sS'tmp8Os9Wa'
p1204
(lp1205
(I176
I56
g45
tp1206
a(I85
I45
g45
tp1207
asS'tmpfQNM1S'
p1208
(lp1209
sS'tmpcr5WR0'
p1210
(lp1211
sS'tmpIXSxUG'
p1212
(lp1213
(I82
I122
g14
tp1214
a(I167
I122
g14
tp1215
a(I233
I121
g14
tp1216
asS'tmpKRoUG7'
p1217
(lp1218
(I194
I73
g45
tp1219
asS'tmpn12rCd'
p1220
(lp1221
sS'tmp6RK4te'
p1222
(lp1223
(I174
I114
g8
tp1224
a(I73
I102
g8
tp1225
a(I251
I100
g12
tp1226
a(I75
I104
g14
tp1227
a(I173
I113
g14
tp1228
a(I246
I112
g14
tp1229
asS'tmpNKpXCZ'
p1230
(lp1231
sS'tmp7CCut3'
p1232
(lp1233
(I265
I95
g8
tp1234
a(I274
I94
g12
tp1235
a(I76
I94
g14
tp1236
a(I262
I100
g14
tp1237
asS'tmpftulin'
p1238
(lp1239
sS'tmpsJs5Ev'
p1240
(lp1241
sS'tmpk8oRQl'
p1242
(lp1243
sS'tmpwA4oMB'
p1244
(lp1245
sS'tmpLQ5Le5'
p1246
(lp1247
sS'tmpSEESK6'
p1248
(lp1249
sS'tmp0IIJ0A'
p1250
(lp1251
(I69
I105
S'back'
p1252
tp1253
a(I248
I115
g1252
tp1254
a(I172
I104
g259
tp1255
a(I170
I96
g12
tp1256
a(I69
I99
g14
tp1257
a(I176
I100
g14
tp1258
a(I246
I108
g14
tp1259
asS'tmprN3TaK'
p1260
(lp1261
sS'tmp_3KoM5'
p1262
(lp1263
sS'tmpzT0RKv'
p1264
(lp1265
sS'tmp5oTvNo'
p1266
(lp1267
(I161
I102
g8
tp1268
a(I74
I108
g8
tp1269
a(I260
I102
g12
tp1270
a(I73
I110
g14
tp1271
a(I167
I112
g14
tp1272
a(I244
I120
g14
tp1273
asS'tmpCK_P6c'
p1274
(lp1275
(I164
I76
g12
tp1276
a(I148
I79
g14
tp1277
asS'tmpWx3e7x'
p1278
(lp1279
sS'tmppauaMR'
p1280
(lp1281
sS'tmpID2aEh'
p1282
(lp1283
(I189
I65
g45
tp1284
asS'tmpSHWQ7P'
p1285
(lp1286
sS'tmpg2mnTs'
p1287
(lp1288
sS'tmp6Q_AGL'
p1289
(lp1290
(I243
I57
g8
tp1291
a(I268
I45
g12
tp1292
a(I82
I47
g14
tp1293
a(I243
I64
g14
tp1294
asS'tmpaLu6Kx'
p1295
(lp1296
sS'tmpiu8Z9R'
p1297
(lp1298
sS'tmpSyJsTj'
p1299
(lp1300
sS'tmpDhG6TB'
p1301
(lp1302
(I77
I47
g45
tp1303
a(I173
I61
g45
tp1304
asS'tmpzVS2sx'
p1305
(lp1306
sS'tmpq_YlOm'
p1307
(lp1308
sS'tmpfbvRpq'
p1309
(lp1310
sS'tmpv71Ccf'
p1311
(lp1312
sS'tmpnTupkp'
p1313
(lp1314
sS'tmpYurRyb'
p1315
(lp1316
sS'tmpnU0Tn8'
p1317
(lp1318
sS'tmpSXmdLT'
p1319
(lp1320
sS'tmp8foduK'
p1321
(lp1322
(I162
I121
g8
tp1323
a(I250
I103
g12
tp1324
a(I77
I111
g14
tp1325
a(I161
I116
g14
tp1326
a(I231
I120
g14
tp1327
asS'tmp2g69Kj'
p1328
(lp1329
(I166
I98
g8
tp1330
a(I70
I89
g10
tp1331
a(I239
I102
g12
tp1332
a(I161
I99
g14
tp1333
a(I241
I102
g14
tp1334
asS'tmpwcZgxy'
p1335
(lp1336
sS'tmp8kehDp'
p1337
(lp1338
(I164
I109
g8
tp1339
a(I80
I89
g8
tp1340
a(I253
I103
g12
tp1341
a(I84
I96
g14
tp1342
a(I161
I110
g14
tp1343
a(I260
I106
g14
tp1344
asS'tmpO3bUP8'
p1345
(lp1346
sS'tmpM9N0wz'
p1347
(lp1348
sS'tmpHL6MVD'
p1349
(lp1350
(I162
I104
g8
tp1351
a(I253
I103
g8
tp1352
a(I78
I99
g8
tp1353
a(I80
I99
g14
tp1354
a(I164
I110
g14
tp1355
a(I256
I107
g14
tp1356
asS'tmptFjFuS'
p1357
(lp1358
sS'tmpMUkGTx'
p1359
(lp1360
sS'tmpSnOFMC'
p1361
(lp1362
(I170
I63
g45
tp1363
asS'tmpfgaqAg'
p1364
(lp1365
sS'tmpLPDfBf'
p1366
(lp1367
sS'tmp2kZ5bu'
p1368
(lp1369
(I158
I110
g8
tp1370
a(I255
I114
g8
tp1371
a(I258
I101
g12
tp1372
a(I64
I101
g14
tp1373
a(I158
I112
g14
tp1374
a(I250
I110
g14
tp1375
asS'tmpQG9BeO'
p1376
(lp1377
sS'tmpyo3MYQ'
p1378
(lp1379
sS'tmpCNWh5q'
p1380
(lp1381
sS'tmphC7Vr7'
p1382
(lp1383
sS'tmp4JLrpB'
p1384
(lp1385
(I271
I103
g12
tp1386
a(I73
I94
g14
tp1387
a(I241
I112
g14
tp1388
asS'tmp8EC_Oz'
p1389
(lp1390
(I249
I91
g12
tp1391
a(I61
I86
g14
tp1392
a(I240
I107
g14
tp1393
asS'tmpgeRdXs'
p1394
(lp1395
sS'tmpQcoWKK'
p1396
(lp1397
sS'tmpt2CL5H'
p1398
(lp1399
sS'tmpeo7nDN'
p1400
(lp1401
sS'tmp_bw7Kt'
p1402
(lp1403
sS'tmpaFz15V'
p1404
(lp1405
sS'tmpynTJDu'
p1406
(lp1407
sS'tmpXiYnA8'
p1408
(lp1409
sS'tmpowGAZI'
p1410
(lp1411
sS'tmpRgZ3am'
p1412
(lp1413
(I168
I43
g45
tp1414
asS'tmp0se_Po'
p1415
(lp1416
(I77
I49
g382
tp1417
a(I174
I60
g382
tp1418
a(I271
I40
g12
tp1419
a(I76
I47
g14
tp1420
a(I179
I57
g14
tp1421
a(I242
I52
g14
tp1422
asS'tmpqXkXGU'
p1423
(lp1424
sS'tmpRwliNu'
p1425
(lp1426
(I87
I65
g45
tp1427
a(I170
I68
g45
tp1428
asS'tmp1TzKrE'
p1429
(lp1430
(I76
I101
g259
tp1431
a(I170
I99
g259
tp1432
a(I249
I103
g12
tp1433
a(I73
I96
g14
tp1434
a(I166
I104
g14
tp1435
a(I244
I100
g14
tp1436
asS'tmpFIGvlb'
p1437
(lp1438
(I166
I116
g8
tp1439
a(I68
I102
g8
tp1440
a(I231
I107
g12
tp1441
a(I65
I108
g14
tp1442
a(I168
I124
g14
tp1443
asS'tmpEdbEQH'
p1444
(lp1445
(I180
I97
g8
tp1446
a(I172
I100
g12
tp1447
a(I80
I96
g14
tp1448
a(I177
I103
g14
tp1449
a(I246
I108
g14
tp1450
asS'tmp95lBNl'
p1451
(lp1452
(I77
I107
g8
tp1453
a(I172
I107
g8
tp1454
a(I175
I101
g12
tp1455
a(I72
I101
g14
tp1456
a(I170
I107
g14
tp1457
a(I238
I112
g14
tp1458
asS'tmpoM1Xgu'
p1459
(lp1460
sS'tmpCEIlPz'
p1461
(lp1462
sS'tmptF9ZnE'
p1463
(lp1464
sS'tmpsZiRPg'
p1465
(lp1466
sS'tmpb2cWfb'
p1467
(lp1468
sS'tmpOPWAqN'
p1469
(lp1470
sS'tmphSNNXj'
p1471
(lp1472
sS'tmpYB_OK2'
p1473
(lp1474
sS'tmpHedvZO'
p1475
(lp1476
(I73
I105
g8
tp1477
a(I169
I107
g8
tp1478
a(I80
I108
g14
tp1479
a(I173
I112
g14
tp1480
a(I256
I120
g14
tp1481
asS'tmpNL_C34'
p1482
(lp1483
sS'tmpQs3MIi'
p1484
(lp1485
(I83
I45
g45
tp1486
a(I180
I54
g45
tp1487
asS'tmpD0cApn'
p1488
(lp1489
(I272
I107
g12
tp1490
a(I69
I86
g14
tp1491
asS'tmpE4e6dk'
p1492
(lp1493
(I78
I92
g8
tp1494
a(I168
I101
g8
tp1495
a(I164
I97
g12
tp1496
a(I72
I97
g14
tp1497
a(I165
I97
g14
tp1498
a(I246
I110
g14
tp1499
asS'tmpffA2iT'
p1500
(lp1501
sS'tmpRAmSoA'
p1502
(lp1503
(I82
I65
g45
tp1504
asS'tmpWSw6hQ'
p1505
(lp1506
sS'tmpFs3oWk'
p1507
(lp1508
(I83
I45
g8
tp1509
a(I172
I55
g8
tp1510
a(I243
I51
g8
tp1511
a(I271
I40
g12
tp1512
a(I78
I45
g14
tp1513
a(I172
I57
g14
tp1514
a(I249
I49
g14
tp1515
asS'tmp6tGEzx'
p1516
(lp1517
(I180
I57
g45
tp1518
asS'tmpWT4Dkq'
p1519
(lp1520
sS'tmpYR3uTz'
p1521
(lp1522
sS'tmp4Prulc'
p1523
(lp1524
(I161
I117
g8
tp1525
a(I250
I103
g12
tp1526
a(I63
I109
g14
tp1527
a(I167
I120
g14
tp1528
a(I250
I107
g14
tp1529
asS'tmpeLD32m'
p1530
(lp1531
sS'tmpei2sxO'
p1532
(lp1533
sS'tmpAhd961'
p1534
(lp1535
(I164
I114
g8
tp1536
a(I77
I110
g8
tp1537
a(I265
I100
g12
tp1538
a(I71
I109
g14
tp1539
a(I163
I113
g14
tp1540
a(I256
I112
g14
tp1541
asS'tmpqWGU_v'
p1542
(lp1543
sS'tmp9vXwYw'
p1544
(lp1545
(I265
I102
g12
tp1546
a(I72
I96
g14
tp1547
asS'tmplmyrA4'
p1548
(lp1549
sS'tmpPGDp3z'
p1550
(lp1551
sS'tmpSlzHtT'
p1552
(lp1553
(I161
I70
g45
tp1554
a(I77
I69
g45
tp1555
asS'tmpFVCemU'
p1556
(lp1557
sS'tmpAIKBMQ'
p1558
(lp1559
(I161
I110
g8
tp1560
a(I72
I100
g8
tp1561
a(I251
I106
g12
tp1562
a(I64
I94
g14
tp1563
a(I160
I105
g14
tp1564
a(I239
I109
g14
tp1565
asS'tmpca7ESm'
p1566
(lp1567
sS'tmpyMPc7r'
p1568
(lp1569
sS'tmpyKZ17Y'
p1570
(lp1571
sS'tmpnBvlfD'
p1572
(lp1573
sS'tmpcTGMa8'
p1574
(lp1575
sS'tmp7TJpwp'
p1576
(lp1577
(I57
I93
g8
tp1578
a(I208
I105
g8
tp1579
a(I227
I93
g12
tp1580
a(I65
I96
g14
tp1581
a(I206
I109
g14
tp1582
asS'tmpz7_5oJ'
p1583
(lp1584
sS'tmpfV_Jo0'
p1585
(lp1586
sS'tmpszlVeY'
p1587
(lp1588
sS'tmpMiaTI9'
p1589
(lp1590
sS'tmpu1gGXr'
p1591
(lp1592
sS'tmpyK770n'
p1593
(lp1594
sS'tmpPfziLW'
p1595
(lp1596
sS'tmpg2wnmK'
p1597
(lp1598
sS'tmpsPcLu6'
p1599
(lp1600
sS'tmpmT9JCQ'
p1601
(lp1602
sS'tmpr2OhBh'
p1603
(lp1604
sS'tmpGlxhyP'
p1605
(lp1606
(I160
I116
g8
tp1607
a(I58
I114
g14
tp1608
a(I161
I123
g14
tp1609
a(I253
I120
g14
tp1610
asS'tmpUIcZw4'
p1611
(lp1612
sS'tmpn4a3xk'
p1613
(lp1614
sS'tmpipvkM9'
p1615
(lp1616
sS'tmp1xgY7N'
p1617
(lp1618
(I74
I91
g279
tp1619
a(I158
I110
g279
tp1620
a(I253
I99
g12
tp1621
a(I73
I92
g14
tp1622
a(I152
I107
g14
tp1623
a(I244
I102
g14
tp1624
asS'tmp0OF7TW'
p1625
(lp1626
(I69
I127
g382
tp1627
a(I235
I114
g382
tp1628
a(I166
I117
g259
tp1629
a(I167
I102
g12
tp1630
a(I66
I124
g14
tp1631
a(I171
I121
g14
tp1632
a(I241
I121
g14
tp1633
asS'tmpPOsqnc'
p1634
(lp1635
(I144
I91
g45
tp1636
asS'tmpClENxk'
p1637
(lp1638
(I68
I103
g8
tp1639
a(I166
I118
g8
tp1640
a(I255
I107
g12
tp1641
a(I63
I108
g14
tp1642
a(I160
I116
g14
tp1643
a(I248
I114
g14
tp1644
asS'tmpZoR0wZ'
p1645
(lp1646
sS'tmpsXil3l'
p1647
(lp1648
sS'tmpp7UsSz'
p1649
(lp1650
sS'tmpFH7tf1'
p1651
(lp1652
(I260
I99
g12
tp1653
a(I68
I86
g14
tp1654
a(I239
I119
g14
tp1655
asS'tmpeholri'
p1656
(lp1657
sS'tmpRXose1'
p1658
(lp1659
sS'tmpFAEVtX'
p1660
(lp1661
(I162
I121
g8
tp1662
a(I251
I114
g8
tp1663
a(I175
I101
g12
tp1664
a(I59
I111
g14
tp1665
a(I163
I124
g14
tp1666
a(I252
I121
g14
tp1667
asS'tmpd_CDlB'
p1668
(lp1669
sS'tmp459wDC'
p1670
(lp1671
(I166
I110
g8
tp1672
a(I70
I95
g8
tp1673
a(I176
I100
g12
tp1674
a(I75
I97
g14
tp1675
a(I166
I109
g14
tp1676
a(I243
I116
g14
tp1677
asS'tmpaareUq'
p1678
(lp1679
sS'tmplmueIH'
p1680
(lp1681
sS'tmpTyKZt3'
p1682
(lp1683
sS'tmpIFpvBe'
p1684
(lp1685
(I73
I88
g8
tp1686
a(I72
I91
g14
tp1687
asS'tmpY3hib7'
p1688
(lp1689
sS'tmpDdJmK7'
p1690
(lp1691
(I180
I110
g8
tp1692
a(I78
I112
g8
tp1693
a(I174
I100
g12
tp1694
a(I78
I102
g14
tp1695
a(I173
I108
g14
tp1696
a(I253
I110
g14
tp1697
asS'tmpqAv2Dw'
p1698
(lp1699
sS'tmpVSW8sC'
p1700
(lp1701
sS'tmpR5wUtp'
p1702
(lp1703
sS'tmptCOZg7'
p1704
(lp1705
sS'tmpNp4DwF'
p1706
(lp1707
(I86
I48
g45
tp1708
a(I183
I53
g45
tp1709
asS'tmpwquTzW'
p1710
(lp1711
sS'tmpDo0c_9'
p1712
(lp1713
(I158
I103
g8
tp1714
a(I250
I110
g8
tp1715
a(I167
I96
g12
tp1716
a(I67
I103
g14
tp1717
a(I166
I111
g14
tp1718
a(I255
I110
g14
tp1719
asS'tmp5WLnLx'
p1720
(lp1721
(I77
I109
g8
tp1722
a(I170
I112
g8
tp1723
a(I243
I116
g8
tp1724
a(I170
I100
g12
tp1725
a(I75
I107
g14
tp1726
a(I164
I108
g14
tp1727
a(I240
I108
g14
tp1728
asS'tmp1Mw6Zt'
p1729
(lp1730
(I71
I114
g259
tp1731
a(I167
I114
g259
tp1732
a(I163
I96
g12
tp1733
a(I69
I109
g14
tp1734
a(I159
I110
g14
tp1735
a(I248
I113
g14
tp1736
asS'tmp0ewPu7'
p1737
(lp1738
(I82
I54
g45
tp1739
asS'tmpuRLbB5'
p1740
(lp1741
sS'tmpQRYW7n'
p1742
(lp1743
sS'tmp4dLdRE'
p1744
(lp1745
(I165
I107
g8
tp1746
a(I245
I109
g8
tp1747
a(I73
I99
g8
tp1748
a(I260
I102
g12
tp1749
a(I78
I100
g14
tp1750
a(I171
I107
g14
tp1751
a(I237
I110
g14
tp1752
asS'tmpgPhjuY'
p1753
(lp1754
sS'tmpf4YNTt'
p1755
(lp1756
sS'tmpxUWFEx'
p1757
(lp1758
sS'tmpCuiT09'
p1759
(lp1760
sS'tmpEyCbQX'
p1761
(lp1762
(I172
I67
g45
tp1763
asS'tmpcvklvG'
p1764
(lp1765
sS'tmpf4VLlg'
p1766
(lp1767
sS'tmpBy8L7X'
p1768
(lp1769
(I169
I110
g8
tp1770
a(I77
I90
g8
tp1771
a(I261
I103
g12
tp1772
a(I70
I98
g14
tp1773
a(I164
I117
g14
tp1774
a(I244
I117
g14
tp1775
asS'tmpbN3rrl'
p1776
(lp1777
sS'tmpJweXiG'
p1778
(lp1779
(I79
I59
g45
tp1780
a(I173
I72
g45
tp1781
asS'tmpExbKBr'
p1782
(lp1783
(I155
I101
g8
tp1784
a(I256
I103
g12
tp1785
a(I65
I91
g14
tp1786
a(I162
I100
g14
tp1787
a(I244
I109
g14
tp1788
asS'tmpStfsi2'
p1789
(lp1790
sS'tmpAICXsL'
p1791
(lp1792
(I183
I78
g45
tp1793
asS'tmpHQg3ea'
p1794
(lp1795
(I168
I58
g45
tp1796
a(I74
I54
g45
tp1797
asS'tmpXpzyle'
p1798
(lp1799
sS'tmp1RWFYZ'
p1800
(lp1801
(I96
I57
g45
tp1802
asS'tmpM2UA3G'
p1803
(lp1804
sS'tmpUp2g2T'
p1805
(lp1806
sS'tmpK7jXMg'
p1807
(lp1808
sS'tmpsfaou1'
p1809
(lp1810
sS'tmpjM13m_'
p1811
(lp1812
sS'tmpz1lI1U'
p1813
(lp1814
sS'tmpB8R_RT'
p1815
(lp1816
(I168
I53
g8
tp1817
a(I73
I38
g8
tp1818
a(I184
I46
g12
tp1819
a(I71
I45
g14
tp1820
a(I172
I58
g14
tp1821
a(I237
I56
g14
tp1822
asS'tmpWgodg9'
p1823
(lp1824
sS'tmpMfI67y'
p1825
(lp1826
sS'tmpa5a62l'
p1827
(lp1828
sS'tmpFoLF8E'
p1829
(lp1830
(I156
I106
g8
tp1831
a(I258
I98
g12
tp1832
a(I81
I95
g14
tp1833
a(I163
I102
g14
tp1834
a(I246
I100
g14
tp1835
asS'tmpszifKc'
p1836
(lp1837
sS'tmpNEJQhi'
p1838
(lp1839
sS'tmpaxp3hj'
p1840
(lp1841
sS'tmp7n_xEO'
p1842
(lp1843
(I180
I53
g8
tp1844
a(I86
I47
g10
tp1845
a(I265
I42
g12
tp1846
a(I177
I59
g14
tp1847
a(I242
I57
g14
tp1848
asS'tmp24aVLW'
p1849
(lp1850
(I170
I54
g279
tp1851
a(I258
I45
g12
tp1852
a(I85
I57
g14
tp1853
a(I173
I56
g14
tp1854
a(I231
I65
g14
tp1855
asS'tmp9_r9Rr'
p1856
(lp1857
(I160
I112
g8
tp1858
a(I252
I102
g12
tp1859
a(I76
I107
g14
tp1860
a(I168
I114
g14
tp1861
a(I248
I111
g14
tp1862
asS'tmprVG4PC'
p1863
(lp1864
sS'tmppglAIe'
p1865
(lp1866
sS'tmpdXhSBP'
p1867
(lp1868
sS'tmpEr770S'
p1869
(lp1870
(I255
I103
g12
tp1871
a(I73
I98
g14
tp1872
a(I257
I111
g14
tp1873
asS'tmplVo89H'
p1874
(lp1875
sS'tmpHICx1R'
p1876
(lp1877
(I87
I103
g8
tp1878
a(I316
I128
g8
tp1879
a(I85
I105
g14
tp1880
a(I241
I124
g14
tp1881
a(I323
I124
g14
tp1882
asS'tmplf2VQ9'
p1883
(lp1884
sS'tmp85MbDq'
p1885
(lp1886
(I175
I54
g45
tp1887
asS'tmpTHdAkB'
p1888
(lp1889
sS'tmprjlS7n'
p1890
(lp1891
sS'tmp9Nx0eD'
p1892
(lp1893
(I103
I62
g45
tp1894
asS'tmp6MLFBo'
p1895
(lp1896
(I87
I91
g8
tp1897
a(I255
I107
g12
tp1898
a(I84
I100
g14
tp1899
a(I253
I111
g14
tp1900
asS'tmpZ98gJG'
p1901
(lp1902
sS'tmppzJQGN'
p1903
(lp1904
sS'tmp7jEKtK'
p1905
(lp1906
(I73
I93
g8
tp1907
a(I169
I103
g8
tp1908
a(I244
I109
g8
tp1909
a(I179
I96
g12
tp1910
a(I73
I100
g14
tp1911
a(I172
I108
g14
tp1912
a(I241
I111
g14
tp1913
asS'tmpCWspWZ'
p1914
(lp1915
(I131
I43
g45
tp1916
a(I285
I28
g45
tp1917
asS'tmpUAbLEs'
p1918
(lp1919
sS'tmpSfxu7y'
p1920
(lp1921
sS'tmp1mQKDg'
p1922
(lp1923
(I166
I111
g279
tp1924
a(I248
I110
g279
tp1925
a(I250
I100
g12
tp1926
a(I66
I100
g14
tp1927
a(I161
I116
g14
tp1928
a(I243
I109
g14
tp1929
asS'tmpZ6rPy_'
p1930
(lp1931
sS'tmphcPbpU'
p1932
(lp1933
sS'tmpFJz9r1'
p1934
(lp1935
(I156
I100
g8
tp1936
a(I241
I113
g8
tp1937
a(I172
I98
g12
tp1938
a(I64
I98
g14
tp1939
a(I163
I112
g14
tp1940
a(I238
I114
g14
tp1941
asS'tmpeFoZEl'
p1942
(lp1943
sS'tmproZqq7'
p1944
(lp1945
sS'tmpwW_Zz4'
p1946
(lp1947
sS'tmpxXjUhN'
p1948
(lp1949
sS'tmp2WVDQ8'
p1950
(lp1951
(I80
I44
g279
tp1952
a(I169
I62
g279
tp1953
a(I180
I45
g12
tp1954
a(I78
I52
g14
tp1955
a(I170
I57
g14
tp1956
a(I235
I64
g14
tp1957
asS'tmpvOYxs3'
p1958
(lp1959
sS'tmpheXyAu'
p1960
(lp1961
sS'tmpo_wLJ2'
p1962
(lp1963
sS'tmpBCYoxh'
p1964
(lp1965
(I87
I114
g8
tp1966
a(I163
I111
g8
tp1967
a(I255
I106
g12
tp1968
a(I80
I107
g14
tp1969
a(I161
I114
g14
tp1970
a(I255
I122
g14
tp1971
asS'tmpNidYUf'
p1972
(lp1973
sS'tmp5BGFXF'
p1974
(lp1975
(I77
I93
g8
tp1976
a(I249
I91
g8
tp1977
a(I250
I105
g12
tp1978
a(I75
I89
g14
tp1979
a(I170
I105
g14
tp1980
a(I248
I103
g14
tp1981
asS'tmpNH6BuF'
p1982
(lp1983
sS'tmpzUoVkI'
p1984
(lp1985
sS'tmpqcuth2'
p1986
(lp1987
sS'tmpEHNxHK'
p1988
(lp1989
(I80
I64
g45
tp1990
a(I174
I63
g45
tp1991
asS'tmpzju25b'
p1992
(lp1993
sS'tmpxRJqP0'
p1994
(lp1995
sS'tmp1J9X3G'
p1996
(lp1997
(I168
I105
g259
tp1998
a(I260
I102
g12
tp1999
a(I70
I99
g14
tp2000
a(I176
I105
g14
tp2001
a(I249
I105
g14
tp2002
asS'tmpMR9Twq'
p2003
(lp2004
sS'tmpyrTYcG'
p2005
(lp2006
sS'tmpGpqiMU'
p2007
(lp2008
(I160
I116
g8
tp2009
a(I80
I84
g8
tp2010
a(I221
I123
g8
tp2011
a(I84
I85
g14
tp2012
a(I161
I127
g14
tp2013
a(I225
I124
g14
tp2014
asS'tmpG2MuUE'
p2015
(lp2016
(I257
I114
g8
tp2017
a(I253
I105
g12
tp2018
a(I107
I109
g14
tp2019
a(I248
I122
g14
tp2020
asS'tmpPyXRry'
p2021
(lp2022
sS'tmpw9a7hy'
p2023
(lp2024
sS'tmpleMI2m'
p2025
(lp2026
sS'tmp8RfaRb'
p2027
(lp2028
(I177
I56
g45
tp2029
asS'tmpknew6m'
p2030
(lp2031
sS'tmppPnaz2'
p2032
(lp2033
sS'tmpj08Z4v'
p2034
(lp2035
sS'tmp6Z7oVD'
p2036
(lp2037
(I164
I93
g8
tp2038
a(I80
I86
g8
tp2039
a(I264
I96
g12
tp2040
a(I80
I86
g14
tp2041
a(I164
I93
g14
tp2042
a(I263
I98
g14
tp2043
asS'tmpzJpYcm'
p2044
(lp2045
sS'tmplWqpIq'
p2046
(lp2047
sS'tmp44bXZx'
p2048
(lp2049
(I178
I96
g8
tp2050
a(I69
I93
g8
tp2051
a(I254
I108
g12
tp2052
a(I69
I94
g14
tp2053
a(I179
I100
g14
tp2054
a(I252
I103
g14
tp2055
asS'tmplC4Whl'
p2056
(lp2057
sS'tmp7exFr3'
p2058
(lp2059
(I264
I100
g12
tp2060
a(I77
I96
g14
tp2061
a(I266
I95
g14
tp2062
asS'tmp_ArFyI'
p2063
(lp2064
sS'tmpluBhQC'
p2065
(lp2066
sS'tmpoRjuko'
p2067
(lp2068
sS'tmprlWcSs'
p2069
(lp2070
sS'tmpF2fSqP'
p2071
(lp2072
sS'tmp1P566V'
p2073
(lp2074
(I77
I98
g259
tp2075
a(I167
I99
g259
tp2076
a(I167
I100
g12
tp2077
a(I76
I96
g14
tp2078
a(I162
I98
g14
tp2079
a(I247
I96
g14
tp2080
asS'tmpjnRrsx'
p2081
(lp2082
sS'tmpTeXh32'
p2083
(lp2084
sS'tmpIDLsoM'
p2085
(lp2086
(I167
I110
g8
tp2087
a(I76
I103
g14
tp2088
a(I160
I116
g14
tp2089
a(I242
I116
g14
tp2090
asS'tmpRWN1Mn'
p2091
(lp2092
(I189
I94
g45
tp2093
asS'tmpgFy5bo'
p2094
(lp2095
sS'tmp7ebaG5'
p2096
(lp2097
(I231
I110
g12
tp2098
a(I68
I95
g14
tp2099
asS'tmp4ROFrQ'
p2100
(lp2101
(I165
I102
g8
tp2102
a(I250
I108
g8
tp2103
a(I161
I96
g12
tp2104
a(I74
I97
g14
tp2105
a(I163
I100
g14
tp2106
a(I246
I112
g14
tp2107
asS'tmpzyqYSx'
p2108
(lp2109
sS'tmpJVhOHV'
p2110
(lp2111
(I183
I59
g45
tp2112
asS'tmpzIPk_J'
p2113
(lp2114
sS'tmpw9HzZa'
p2115
(lp2116
sS'tmp3ZlqXG'
p2117
(lp2118
(I166
I98
g8
tp2119
a(I68
I93
g10
tp2120
a(I240
I105
g12
tp2121
a(I167
I104
g14
tp2122
a(I241
I105
g14
tp2123
asS'tmpeXrSyG'
p2124
(lp2125
sS'tmpoMP2wp'
p2126
(lp2127
sS'tmparju8B'
p2128
(lp2129
sS'tmp9qkM7v'
p2130
(lp2131
(I160
I108
g8
tp2132
a(I253
I92
g8
tp2133
a(I262
I98
g12
tp2134
a(I65
I82
g14
tp2135
a(I160
I111
g14
tp2136
a(I257
I93
g14
tp2137
asS'tmpu8dUZa'
p2138
(lp2139
sS'tmpakSZmA'
p2140
(lp2141
sS'tmp7GP54f'
p2142
(lp2143
(I167
I105
g8
tp2144
a(I247
I103
g12
tp2145
a(I66
I92
g14
tp2146
a(I165
I102
g14
tp2147
a(I242
I96
g14
tp2148
asS'tmp9r82qO'
p2149
(lp2150
(I201
I104
g8
tp2151
a(I144
I111
g8
tp2152
a(I55
I102
g8
tp2153
a(I232
I93
g12
tp2154
a(I53
I102
g14
tp2155
a(I147
I113
g14
tp2156
a(I205
I106
g14
tp2157
asS'tmpT_opfH'
p2158
(lp2159
sS'tmp3AO1Sc'
p2160
(lp2161
(I164
I103
g8
tp2162
a(I256
I103
g12
tp2163
a(I72
I93
g14
tp2164
a(I163
I112
g14
tp2165
a(I255
I112
g14
tp2166
asS'tmpdzbiSh'
p2167
(lp2168
sS'tmpkEkyfK'
p2169
(lp2170
sS'tmpcBhVd9'
p2171
(lp2172
sS'tmpoyFurG'
p2173
(lp2174
sS'tmpcuMMP1'
p2175
(lp2176
sS'tmpOQ2phW'
p2177
(lp2178
sS'tmpiQUeZ9'
p2179
(lp2180
sS'tmpqrSee0'
p2181
(lp2182
sS'tmpcoKBJv'
p2183
(lp2184
sS'tmpMQ8yTg'
p2185
(lp2186
sS'tmp0qJ4fE'
p2187
(lp2188
(I254
I100
g12
tp2189
a(I77
I91
g14
tp2190
asS'tmppgIPO6'
p2191
(lp2192
sS'tmpsFajq3'
p2193
(lp2194
sS'tmpTKn2GR'
p2195
(lp2196
sS'tmpG1Zt7k'
p2197
(lp2198
(I162
I110
g8
tp2199
a(I258
I127
g8
tp2200
a(I258
I102
g12
tp2201
a(I80
I114
g14
tp2202
a(I170
I119
g14
tp2203
a(I260
I122
g14
tp2204
asS'tmpLYkHSn'
p2205
(lp2206
sS'tmpfN32lw'
p2207
(lp2208
sS'tmpDMBK6R'
p2209
(lp2210
(I170
I106
g8
tp2211
a(I77
I89
g8
tp2212
a(I253
I103
g12
tp2213
a(I78
I95
g14
tp2214
a(I167
I105
g14
tp2215
a(I251
I100
g14
tp2216
asS'tmpNVd6fm'
p2217
(lp2218
sS'tmpOrZ3ME'
p2219
(lp2220
sS'tmpEGC7fz'
p2221
(lp2222
(I90
I68
g45
tp2223
asS'tmpJlRTPd'
p2224
(lp2225
(I176
I66
g45
tp2226
a(I75
I57
g45
tp2227
asS'tmp9e4mW7'
p2228
(lp2229
(I169
I110
g8
tp2230
a(I245
I104
g12
tp2231
a(I75
I88
g14
tp2232
a(I158
I111
g14
tp2233
a(I251
I112
g14
tp2234
asS'tmptGDfIU'
p2235
(lp2236
sS'tmp_ebj16'
p2237
(lp2238
sS'tmps_P89n'
p2239
(lp2240
sS'tmpAmIku0'
p2241
(lp2242
(I168
I117
g8
tp2243
a(I255
I106
g12
tp2244
a(I87
I105
g14
tp2245
a(I164
I120
g14
tp2246
a(I263
I123
g14
tp2247
asS'tmpOsmdfD'
p2248
(lp2249
sS'tmpdd4LHZ'
p2250
(lp2251
sS'tmpn6Wswf'
p2252
(lp2253
sS'tmp7oZbpS'
p2254
(lp2255
(I73
I63
g45
tp2256
a(I162
I70
g45
tp2257
asS'tmp6GrOyP'
p2258
(lp2259
(I74
I85
g8
tp2260
a(I232
I104
g8
tp2261
a(I270
I97
g12
tp2262
a(I74
I94
g14
tp2263
a(I231
I108
g14
tp2264
asS'tmpx8Nwcl'
p2265
(lp2266
sS'tmp8PXXQR'
p2267
(lp2268
(I69
I88
g8
tp2269
a(I155
I92
g8
tp2270
a(I250
I90
g8
tp2271
a(I255
I105
g12
tp2272
a(I68
I88
g14
tp2273
a(I165
I99
g14
tp2274
a(I248
I102
g14
tp2275
asS'tmp5FmMun'
p2276
(lp2277
(I167
I100
g8
tp2278
a(I71
I92
g10
tp2279
a(I250
I105
g12
tp2280
a(I172
I106
g14
tp2281
a(I241
I103
g14
tp2282
asS'tmpeGqZzh'
p2283
(lp2284
sS'tmpg1fgEJ'
p2285
(lp2286
sS'tmpqymQXI'
p2287
(lp2288
sS'tmpU_49FY'
p2289
(lp2290
sS'tmpoF_iwc'
p2291
(lp2292
sS'tmpGYOVZO'
p2293
(lp2294
sS'tmp4HtLlG'
p2295
(lp2296
(I169
I99
g8
tp2297
a(I68
I93
g10
tp2298
a(I243
I100
g12
tp2299
a(I172
I108
g14
tp2300
a(I242
I104
g14
tp2301
asS'tmphTtImw'
p2302
(lp2303
sS'tmprrSEXZ'
p2304
(lp2305
sS'tmpFPaSV_'
p2306
(lp2307
(I67
I112
g8
tp2308
a(I164
I108
g8
tp2309
a(I243
I117
g8
tp2310
a(I169
I100
g12
tp2311
a(I65
I109
g14
tp2312
a(I165
I108
g14
tp2313
a(I242
I115
g14
tp2314
asS'tmp3xLfIu'
p2315
(lp2316
(I159
I94
g8
tp2317
a(I78
I85
g8
tp2318
a(I255
I101
g12
tp2319
a(I80
I91
g14
tp2320
a(I157
I93
g14
tp2321
a(I254
I96
g14
tp2322
asS'tmpMhzPTP'
p2323
(lp2324
sS'tmpfA82Ix'
p2325
(lp2326
sS'tmp_vKSe8'
p2327
(lp2328
sS'tmpGX47vA'
p2329
(lp2330
(I68
I91
g8
tp2331
a(I244
I103
g12
tp2332
a(I74
I94
g14
tp2333
a(I240
I100
g14
tp2334
asS'tmp_IPKNS'
p2335
(lp2336
sS'tmpUUCEmh'
p2337
(lp2338
sS'tmpTc7huQ'
p2339
(lp2340
sS'tmpSIcJOb'
p2341
(lp2342
sS'tmpBkBFP4'
p2343
(lp2344
sS'tmp6r3WVJ'
p2345
(lp2346
(I253
I94
g12
tp2347
a(I83
I86
g14
tp2348
asS'tmpgz9Sik'
p2349
(lp2350
sS'tmpb_GELb'
p2351
(lp2352
sS'tmpwSuT2E'
p2353
(lp2354
sS'tmpj2N7It'
p2355
(lp2356
sS'tmptT9ofb'
p2357
(lp2358
sS'tmp4THJqK'
p2359
(lp2360
(I177
I78
g45
tp2361
asS'tmpOr_typ'
p2362
(lp2363
(I85
I54
g45
tp2364
asS'tmpa6DO0U'
p2365
(lp2366
sS'tmppoqkVl'
p2367
(lp2368
sS'tmpnAjRuG'
p2369
(lp2370
sS'tmpwCIGAG'
p2371
(lp2372
sS'tmpvwJLuQ'
p2373
(lp2374
sS'tmpyNEL99'
p2375
(lp2376
sS'tmpvfsPBG'
p2377
(lp2378
sS'tmp7GLDGL'
p2379
(lp2380
(I168
I96
g8
tp2381
a(I250
I94
g8
tp2382
a(I75
I84
g8
tp2383
a(I268
I100
g12
tp2384
a(I79
I88
g14
tp2385
a(I174
I96
g14
tp2386
a(I246
I96
g14
tp2387
asS'tmpzhbqAL'
p2388
(lp2389
sS'tmpVG0uz4'
p2390
(lp2391
sS'tmpbvQQqy'
p2392
(lp2393
sS'tmpwNVUFO'
p2394
(lp2395
sS'tmpeT7sNI'
p2396
(lp2397
sS'tmpbR7x_D'
p2398
(lp2399
sS'tmpjN6kmQ'
p2400
(lp2401
sS'tmp32soVy'
p2402
(lp2403
(I103
I70
g45
tp2404
asS'tmpeOoGsl'
p2405
(lp2406
sS'tmpugtwq0'
p2407
(lp2408
sS'tmpNeOWRS'
p2409
(lp2410
sS'tmp6L6HCT'
p2411
(lp2412
(I68
I85
g8
tp2413
a(I276
I116
g12
tp2414
a(I68
I85
g14
tp2415
asS'tmpFMO4fU'
p2416
(lp2417
(I232
I104
g8
tp2418
a(I246
I103
g12
tp2419
a(I75
I104
g14
tp2420
a(I230
I105
g14
tp2421
asS'tmp75GZ9w'
p2422
(lp2423
(I75
I95
g8
tp2424
a(I175
I94
g8
tp2425
a(I171
I99
g12
tp2426
a(I80
I91
g14
tp2427
a(I175
I92
g14
tp2428
a(I251
I103
g14
tp2429
asS'tmpyyskNO'
p2430
(lp2431
sS'tmpoQdV1k'
p2432
(lp2433
sS'tmpu2PhEB'
p2434
(lp2435
sS'tmpNxQXf7'
p2436
(lp2437
(I183
I70
g45
tp2438
asS'tmp2ol3uJ'
p2439
(lp2440
(I80
I89
g8
tp2441
a(I275
I109
g12
tp2442
a(I82
I93
g14
tp2443
asS'tmpIrsDGS'
p2444
(lp2445
(I70
I100
g14
tp2446
a(I170
I94
g14
tp2447
a(I227
I105
g14
tp2448
asS'tmplQnDCA'
p2449
(lp2450
sS'tmp1ntciM'
p2451
(lp2452
(I175
I107
g279
tp2453
a(I252
I104
g12
tp2454
a(I67
I101
g14
tp2455
a(I174
I113
g14
tp2456
a(I248
I101
g14
tp2457
asS'tmpzphk7F'
p2458
(lp2459
sS'tmpmFdMMO'
p2460
(lp2461
sS'tmpkF_uRj'
p2462
(lp2463
sS'tmpAL7wWd'
p2464
(lp2465
(I70
I120
g8
tp2466
a(I168
I123
g8
tp2467
a(I246
I116
g8
tp2468
a(I251
I103
g12
tp2469
a(I73
I121
g14
tp2470
a(I165
I121
g14
tp2471
a(I249
I118
g14
tp2472
asS'tmpT1no2S'
p2473
(lp2474
sS'tmpNcaiB9'
p2475
(lp2476
sS'tmp3xx2w7'
p2477
(lp2478
(I161
I106
g8
tp2479
a(I251
I108
g8
tp2480
a(I255
I103
g12
tp2481
a(I73
I100
g14
tp2482
a(I160
I110
g14
tp2483
a(I255
I108
g14
tp2484
asS'tmpr3e8hE'
p2485
(lp2486
sS'tmpSEN9AA'
p2487
(lp2488
(I175
I68
g45
tp2489
asS'tmp5SVZj0'
p2490
(lp2491
(I75
I91
g8
tp2492
a(I270
I104
g12
tp2493
a(I69
I89
g14
tp2494
asS'tmp7EJOVq'
p2495
(lp2496
(I243
I100
g12
tp2497
a(I68
I89
g14
tp2498
a(I243
I90
g14
tp2499
asS'tmp0yW1FF'
p2500
(lp2501
(I257
I100
g12
tp2502
a(I55
I120
g14
tp2503
a(I247
I108
g14
tp2504
asS'tmpnCF2a9'
p2505
(lp2506
sS'tmp2b5lh0'
p2507
(lp2508
(I166
I75
g45
tp2509
asS'tmppgEyjO'
p2510
(lp2511
sS'tmp5mxKj6'
p2512
(lp2513
(I161
I102
g8
tp2514
a(I259
I99
g12
tp2515
a(I72
I97
g14
tp2516
a(I163
I103
g14
tp2517
a(I240
I111
g14
tp2518
asS'tmpld7MGu'
p2519
(lp2520
sS'tmp8J4nzo'
p2521
(lp2522
(I149
I75
g45
tp2523
asS'tmp9kGdNn'
p2524
(lp2525
(I237
I122
g8
tp2526
a(I176
I101
g12
tp2527
a(I75
I100
g14
tp2528
a(I163
I109
g14
tp2529
a(I243
I122
g14
tp2530
asS'tmpRScjJr'
p2531
(lp2532
(I77
I49
g45
tp2533
a(I168
I49
g45
tp2534
asS'tmpIVyw6P'
p2535
(lp2536
(I78
I65
g45
tp2537
a(I158
I77
g45
tp2538
asS'tmplg68sQ'
p2539
(lp2540
sS'tmpuyBeMH'
p2541
(lp2542
sS'tmpfStvjW'
p2543
(lp2544
sS'tmpKjDJk9'
p2545
(lp2546
sS'tmpDTNbCV'
p2547
(lp2548
(I176
I58
g45
tp2549
a(I86
I43
g45
tp2550
asS'tmpM8MYnG'
p2551
(lp2552
sS'tmpF9_6Sx'
p2553
(lp2554
(I71
I84
g8
tp2555
a(I250
I105
g12
tp2556
a(I74
I89
g14
tp2557
a(I161
I114
g14
tp2558
a(I258
I97
g14
tp2559
asS'tmpDOtln8'
p2560
(lp2561
(I260
I110
g12
tp2562
a(I67
I111
g14
tp2563
asS'tmppl4oW7'
p2564
(lp2565
sS'tmpyhgX8q'
p2566
(lp2567
sS'tmpDJgFR9'
p2568
(lp2569
(I163
I98
g8
tp2570
a(I170
I98
g12
tp2571
a(I71
I94
g14
tp2572
a(I160
I104
g14
tp2573
a(I246
I104
g14
tp2574
asS'tmpQ6BWX1'
p2575
(lp2576
sS'tmpfbdjMk'
p2577
(lp2578
sS'tmpmH9Z8U'
p2579
(lp2580
sS'tmp7knJEb'
p2581
(lp2582
(I71
I105
g8
tp2583
a(I161
I100
g8
tp2584
a(I249
I104
g12
tp2585
a(I73
I102
g14
tp2586
a(I157
I105
g14
tp2587
a(I237
I108
g14
tp2588
asS'tmpW9gDF2'
p2589
(lp2590
sS'tmpe6a1lr'
p2591
(lp2592
sS'tmpGDn2ql'
p2593
(lp2594
(I159
I109
g8
tp2595
a(I258
I104
g12
tp2596
a(I80
I97
g14
tp2597
a(I163
I117
g14
tp2598
a(I249
I111
g14
tp2599
asS'tmpeMuXIQ'
p2600
(lp2601
sS'tmpKlDxH1'
p2602
(lp2603
sS'tmpCSwEKB'
p2604
(lp2605
(I175
I93
g8
tp2606
a(I83
I89
g10
tp2607
a(I165
I102
g12
tp2608
a(I174
I94
g14
tp2609
a(I253
I93
g14
tp2610
asS'tmpGXn4Ud'
p2611
(lp2612
(I71
I112
g8
tp2613
a(I230
I111
g12
tp2614
a(I76
I100
g14
tp2615
asS'tmpqraQDI'
p2616
(lp2617
sS'tmpxNgMkN'
p2618
(lp2619
sS'tmpRNEHBu'
p2620
(lp2621
(I179
I60
g45
tp2622
asS'tmpLZlhUU'
p2623
(lp2624
sS'tmprGONv0'
p2625
(lp2626
sS'tmpALy0SB'
p2627
(lp2628
(I176
I72
g45
tp2629
asS'tmpjcl2Py'
p2630
(lp2631
sS'tmpzq6slG'
p2632
(lp2633
sS'tmpFKHj02'
p2634
(lp2635
(I68
I86
g8
tp2636
a(I265
I101
g12
tp2637
a(I64
I83
g14
tp2638
asS'tmp19g5_U'
p2639
(lp2640
(I83
I43
g45
tp2641
a(I181
I56
g45
tp2642
asS'tmpSVPz3u'
p2643
(lp2644
sS'tmppI2I8H'
p2645
(lp2646
sS'tmpDVzwlF'
p2647
(lp2648
(I169
I52
g8
tp2649
a(I98
I37
g8
tp2650
a(I270
I40
g12
tp2651
a(I98
I51
g14
tp2652
a(I168
I57
g14
tp2653
a(I271
I50
g14
tp2654
asS'tmpXIlkev'
p2655
(lp2656
sS'tmpLO4saT'
p2657
(lp2658
(I71
I95
g10
tp2659
asS'tmpkgbEVD'
p2660
(lp2661
sS'tmpTXCKyD'
p2662
(lp2663
sS'tmpSfpMWQ'
p2664
(lp2665
sS'tmpFFTpoh'
p2666
(lp2667
(I153
I98
g8
tp2668
a(I69
I91
g8
tp2669
a(I161
I94
g12
tp2670
a(I74
I94
g14
tp2671
a(I146
I111
g14
tp2672
a(I239
I108
g14
tp2673
asS'tmpGbQs2R'
p2674
(lp2675
(I165
I99
g8
tp2676
a(I81
I90
g10
tp2677
a(I232
I104
g12
tp2678
a(I166
I95
g14
tp2679
a(I241
I106
g14
tp2680
asS'tmphkBXJl'
p2681
(lp2682
sS'tmpTaZ7Ar'
p2683
(lp2684
sS'tmpQ20PXj'
p2685
(lp2686
(I90
I80
g45
tp2687
asS'tmpIOmQCi'
p2688
(lp2689
(I80
I88
g8
tp2690
a(I167
I110
g8
tp2691
a(I246
I103
g8
tp2692
a(I67
I98
g14
tp2693
a(I173
I112
g14
tp2694
a(I244
I109
g14
tp2695
asS'tmpNJVtoJ'
p2696
(lp2697
sS'tmpOvfwHw'
p2698
(lp2699
sS'tmpP5XiDG'
p2700
(lp2701
sS'tmp2doeFT'
p2702
(lp2703
(I70
I89
S'empty'
tp2704
a(I166
I96
g8
tp2705
a(I239
I102
g12
tp2706
a(I172
I103
g14
tp2707
a(I239
I109
g14
tp2708
asS'tmp2672iA'
p2709
(lp2710
(I80
I103
g279
tp2711
a(I161
I103
g279
tp2712
a(I253
I99
g12
tp2713
a(I81
I94
g14
tp2714
a(I163
I107
g14
tp2715
a(I251
I97
g14
tp2716
asS'tmpRaGHfs'
p2717
(lp2718
sS'tmprCHKoc'
p2719
(lp2720
sS'tmpmBji07'
p2721
(lp2722
sS'tmpqcbor1'
p2723
(lp2724
sS'tmp0Yyr8B'
p2725
(lp2726
(I71
I125
g382
tp2727
a(I162
I122
g382
tp2728
a(I241
I122
g259
tp2729
a(I246
I99
g12
tp2730
a(I69
I123
g14
tp2731
a(I160
I122
g14
tp2732
a(I238
I119
g14
tp2733
asS'tmprDR9wW'
p2734
(lp2735
sS'tmpXacWHx'
p2736
(lp2737
sS'tmp8Iy_5i'
p2738
(lp2739
(I160
I94
g8
tp2740
a(I164
I100
g12
tp2741
a(I68
I89
g14
tp2742
a(I160
I100
g14
tp2743
a(I249
I106
g14
tp2744
asS'tmpEsLEhR'
p2745
(lp2746
(I64
I105
g8
tp2747
a(I159
I122
g8
tp2748
a(I258
I103
g12
tp2749
a(I68
I103
g14
tp2750
a(I161
I115
g14
tp2751
a(I253
I118
g14
tp2752
asS'tmprKeSYj'
p2753
(lp2754
sS'tmppsnf_p'
p2755
(lp2756
sS'tmpJFkoxv'
p2757
(lp2758
(I169
I60
g45
tp2759
asS'tmpFxp8vG'
p2760
(lp2761
(I176
I59
g45
tp2762
asS'tmphvXlkY'
p2763
(lp2764
sS'tmpiwlPxh'
p2765
(lp2766
sS'tmppivPtv'
p2767
(lp2768
sS'tmppoAufN'
p2769
(lp2770
sS'tmpHci1qK'
p2771
(lp2772
(I80
I70
g45
tp2773
asS'tmpRAHyjr'
p2774
(lp2775
sS'tmpP4RSOG'
p2776
(lp2777
sS'tmpILSWsR'
p2778
(lp2779
(I70
I82
g8
tp2780
a(I153
I108
g8
tp2781
a(I74
I95
g14
tp2782
a(I161
I106
g14
tp2783
a(I252
I102
g14
tp2784
asS'tmpQMQzYW'
p2785
(lp2786
sS'tmpUak2hV'
p2787
(lp2788
sS'tmpmYDi5z'
p2789
(lp2790
sS'tmpPWNXQJ'
p2791
(lp2792
sS'tmpBgp00c'
p2793
(lp2794
(I161
I105
g8
tp2795
a(I250
I102
g12
tp2796
a(I76
I96
g14
tp2797
a(I168
I109
g14
tp2798
a(I244
I106
g14
tp2799
asS'tmpoxUCSs'
p2800
(lp2801
sS'tmplf5uVX'
p2802
(lp2803
sS'tmpeQrxPh'
p2804
(lp2805
sS'tmpNGShdV'
p2806
(lp2807
sS'tmpAa8eo6'
p2808
(lp2809
(I177
I64
g45
tp2810
a(I67
I71
g45
tp2811
asS'tmp_72Oe1'
p2812
(lp2813
sS'tmpwmrD3h'
p2814
(lp2815
sS'tmpTjSIKw'
p2816
(lp2817
sS'tmpWkn063'
p2818
(lp2819
sS'tmp_4vRTE'
p2820
(lp2821
sS'tmpMIUPCX'
p2822
(lp2823
sS'tmpTf2F1H'
p2824
(lp2825
sS'tmpXQWqoN'
p2826
(lp2827
sS'tmpRGnFM7'
p2828
(lp2829
sS'tmpHw9B6t'
p2830
(lp2831
(I74
I103
g14
tp2832
a(I161
I114
g14
tp2833
a(I261
I104
g14
tp2834
asS'tmpQJbvkh'
p2835
(lp2836
sS'tmpPst32w'
p2837
(lp2838
sS'tmpjnL1Dl'
p2839
(lp2840
sS'tmpBzGO4V'
p2841
(lp2842
(I170
I57
g45
tp2843
a(I74
I57
g45
tp2844
asS'tmphcGNER'
p2845
(lp2846
sS'tmpqrmbQp'
p2847
(lp2848
sS'tmpA0tAKN'
p2849
(lp2850
(I161
I93
g8
tp2851
a(I72
I86
g8
tp2852
a(I241
I102
g12
tp2853
a(I72
I94
g14
tp2854
a(I168
I96
g14
tp2855
a(I225
I103
g14
tp2856
asS'tmpTN_Y8a'
p2857
(lp2858
sS'tmp28BFvs'
p2859
(lp2860
(I70
I130
g279
tp2861
a(I160
I128
g279
tp2862
a(I236
I117
g279
tp2863
a(I173
I97
g12
tp2864
a(I70
I125
g14
tp2865
a(I163
I128
g14
tp2866
a(I235
I123
g14
tp2867
asS'tmpGbIRdn'
p2868
(lp2869
(I73
I45
g8
tp2870
a(I248
I59
g8
tp2871
a(I270
I41
g12
tp2872
a(I80
I48
g14
tp2873
a(I244
I65
g14
tp2874
asS'tmpPa3zQo'
p2875
(lp2876
sS'tmpyyGDcg'
p2877
(lp2878
sS'tmpTBGgrQ'
p2879
(lp2880
sS'tmpOm78Pa'
p2881
(lp2882
sS'tmplqPiDk'
p2883
(lp2884
sS'tmp4MiTbh'
p2885
(lp2886
(I165
I106
g8
tp2887
a(I78
I92
g8
tp2888
a(I258
I106
g12
tp2889
a(I66
I96
g14
tp2890
a(I160
I106
g14
tp2891
a(I250
I110
g14
tp2892
asS'tmpWeWVEx'
p2893
(lp2894
sS'tmpLL9MJX'
p2895
(lp2896
sS'tmp8R8jrQ'
p2897
(lp2898
(I83
I53
g8
tp2899
a(I177
I66
g8
tp2900
a(I181
I47
g12
tp2901
a(I85
I53
g14
tp2902
a(I179
I66
g14
tp2903
a(I246
I61
g14
tp2904
asS'tmpe0DN6m'
p2905
(lp2906
sS'tmpILJYdW'
p2907
(lp2908
(I166
I64
g45
tp2909
a(I77
I65
g45
tp2910
asS'tmpAynb_s'
p2911
(lp2912
sS'tmpVMHANa'
p2913
(lp2914
sS'tmpF2uijO'
p2915
(lp2916
(I209
I40
g45
tp2917
asS'tmp41N6lJ'
p2918
(lp2919
(I243
I104
g8
tp2920
a(I171
I99
g8
tp2921
a(I167
I105
g12
tp2922
a(I72
I95
g14
tp2923
a(I176
I104
g14
tp2924
a(I243
I109
g14
tp2925
asS'tmpc761zS'
p2926
(lp2927
sS'tmpcJlVbM'
p2928
(lp2929
sS'tmp9hfRgm'
p2930
(lp2931
(I78
I102
g8
tp2932
a(I159
I91
g8
tp2933
a(I177
I101
g12
tp2934
a(I77
I107
g14
tp2935
a(I155
I96
g14
tp2936
a(I248
I104
g14
tp2937
asS'tmpGhAD_9'
p2938
(lp2939
(I166
I110
g8
tp2940
a(I253
I99
g12
tp2941
a(I72
I108
g14
tp2942
a(I169
I112
g14
tp2943
a(I248
I112
g14
tp2944
asS'tmpXn_1OO'
p2945
(lp2946
sS'tmpmCeY5V'
p2947
(lp2948
sS'tmpmFFpWO'
p2949
(lp2950
sS'tmpcjRze6'
p2951
(lp2952
sS'tmp5Ho2Op'
p2953
(lp2954
(I71
I130
g8
tp2955
a(I165
I125
g8
tp2956
a(I237
I121
g8
tp2957
a(I246
I102
g12
tp2958
a(I63
I123
g14
tp2959
a(I163
I122
g14
tp2960
a(I236
I120
g14
tp2961
asS'tmp_fiaId'
p2962
(lp2963
sS'tmpPvGeZc'
p2964
(lp2965
sS'tmpnfLWeX'
p2966
(lp2967
sS'tmpyEjgLJ'
p2968
(lp2969
sS'tmpLGkIbU'
p2970
(lp2971
sS'tmpXFp6gg'
p2972
(lp2973
sS'tmpCSRzXA'
p2974
(lp2975
(I54
I94
g8
tp2976
a(I150
I116
g8
tp2977
a(I212
I101
g8
tp2978
a(I152
I89
g12
tp2979
a(I54
I99
g14
tp2980
a(I147
I120
g14
tp2981
a(I216
I112
g14
tp2982
asS'tmpxTwPcz'
p2983
(lp2984
sS'tmpiGUzAP'
p2985
(lp2986
sS'tmp8LriFB'
p2987
(lp2988
(I165
I113
g8
tp2989
a(I69
I110
g8
tp2990
a(I248
I102
g12
tp2991
a(I63
I102
g14
tp2992
a(I166
I115
g14
tp2993
a(I245
I108
g14
tp2994
asS'tmp6OOyQk'
p2995
(lp2996
(I246
I57
g8
tp2997
a(I270
I42
g12
tp2998
a(I79
I44
g14
tp2999
a(I246
I57
g14
tp3000
asS'tmpjxJTUK'
p3001
(lp3002
sS'tmpO38Z30'
p3003
(lp3004
sS'tmpdhTtgO'
p3005
(lp3006
sS'tmploOIgk'
p3007
(lp3008
sS'tmpGvC3qv'
p3009
(lp3010
(I168
I43
g45
tp3011
asS'tmpYaohwG'
p3012
(lp3013
sS'tmpsiib4b'
p3014
(lp3015
sS'tmpaiPCo0'
p3016
(lp3017
sS'tmp2ZFwzV'
p3018
(lp3019
(I183
I109
g279
tp3020
a(I258
I112
g279
tp3021
a(I173
I100
g12
tp3022
a(I77
I100
g14
tp3023
a(I179
I101
g14
tp3024
a(I253
I106
g14
tp3025
asS'tmpdmfDjq'
p3026
(lp3027
sS'tmpDhoeGM'
p3028
(lp3029
(I160
I110
g8
tp3030
a(I72
I92
g8
tp3031
a(I264
I99
g12
tp3032
a(I70
I95
g14
tp3033
a(I162
I109
g14
tp3034
a(I235
I120
g14
tp3035
asS'tmpwx16Od'
p3036
(lp3037
sS'tmpSLygoz'
p3038
(lp3039
sS'tmpM23FQI'
p3040
(lp3041
sS'tmpgFDFW0'
p3042
(lp3043
sS'tmpaWAhop'
p3044
(lp3045
sS'tmpcYUXAQ'
p3046
(lp3047
sS'tmpK04IaU'
p3048
(lp3049
sS'tmpNmsJZv'
p3050
(lp3051
sS'tmpIWfpop'
p3052
(lp3053
(I61
I111
g8
tp3054
a(I160
I121
g8
tp3055
a(I255
I115
g8
tp3056
a(I62
I111
g14
tp3057
a(I163
I114
g14
tp3058
a(I253
I115
g14
tp3059
asS'tmpGZJcsU'
p3060
(lp3061
(I159
I90
g8
tp3062
a(I244
I98
g12
tp3063
a(I77
I81
g14
tp3064
a(I155
I99
g14
tp3065
a(I234
I100
g14
tp3066
asS'tmpg2mt80'
p3067
(lp3068
sS'tmpdnQyJ8'
p3069
(lp3070
sS'tmp9V5whA'
p3071
(lp3072
(I71
I133
g8
tp3073
a(I166
I123
g8
tp3074
a(I239
I119
g8
tp3075
a(I180
I98
g12
tp3076
a(I77
I126
g14
tp3077
a(I167
I124
g14
tp3078
a(I237
I124
g14
tp3079
asS'tmpoUie17'
p3080
(lp3081
sS'tmp3xKShk'
p3082
(lp3083
(I71
I24
g45
tp3084
asS'tmp8wvAi0'
p3085
(lp3086
(I174
I55
g8
tp3087
a(I75
I34
g8
tp3088
a(I238
I72
g12
tp3089
a(I81
I41
g14
tp3090
a(I176
I60
g14
tp3091
a(I255
I47
g14
tp3092
asS'tmpo972h6'
p3093
(lp3094
sS'tmpWXqDJv'
p3095
(lp3096
sS'tmph5KYQ6'
p3097
(lp3098
sS'tmpgwTdRm'
p3099
(lp3100
sS'tmpkgoNyL'
p3101
(lp3102
sS'tmptzk4Ue'
p3103
(lp3104
sS'tmp4kOaj0'
p3105
(lp3106
(I79
I87
g8
tp3107
a(I246
I104
g12
tp3108
a(I74
I91
g14
tp3109
a(I167
I101
g14
tp3110
a(I246
I99
g14
tp3111
asS'tmpt4PQGc'
p3112
(lp3113
sS'tmp6uf0Au'
p3114
(lp3115
(I78
I98
g8
tp3116
a(I174
I98
g12
tp3117
a(I81
I91
g14
tp3118
asS'tmpQIVVWQ'
p3119
(lp3120
sS'tmpDh1lyp'
p3121
(lp3122
(I163
I119
g8
tp3123
a(I175
I104
g12
tp3124
a(I63
I98
g14
tp3125
a(I167
I116
g14
tp3126
asS'tmpVbch8A'
p3127
(lp3128
sS'tmpx4hopM'
p3129
(lp3130
sS'tmpcoKTzb'
p3131
(lp3132
sS'tmpKsdIBg'
p3133
(lp3134
sS'tmpuZSiv0'
p3135
(lp3136
sS'tmpFUFWr5'
p3137
(lp3138
(I164
I103
g8
tp3139
a(I263
I101
g12
tp3140
a(I76
I98
g14
tp3141
a(I164
I109
g14
tp3142
a(I253
I104
g14
tp3143
asS'tmpHQtKys'
p3144
(lp3145
(I83
I47
g8
tp3146
a(I175
I67
g8
tp3147
a(I236
I61
g8
tp3148
a(I79
I55
g14
tp3149
a(I177
I69
g14
tp3150
a(I236
I68
g14
tp3151
asS'tmpTIC93p'
p3152
(lp3153
(I71
I62
g45
tp3154
asS'tmpfAquvf'
p3155
(lp3156
sS'tmpcUTjt0'
p3157
(lp3158
sS'tmpN0FlmE'
p3159
(lp3160
sS'tmppUQGVZ'
p3161
(lp3162
sS'tmpBr4FNS'
p3163
(lp3164
(I166
I107
g8
tp3165
a(I258
I99
g12
tp3166
a(I74
I99
g14
tp3167
a(I168
I105
g14
tp3168
a(I244
I117
g14
tp3169
asS'tmpnmzVH1'
p3170
(lp3171
sS'tmpf5DKg6'
p3172
(lp3173
sS'tmpxOlMJ3'
p3174
(lp3175
sS'tmpZE1Q0Q'
p3176
(lp3177
sS'tmpBoZJKg'
p3178
(lp3179
(I162
I108
g8
tp3180
a(I258
I99
g12
tp3181
a(I73
I99
g14
tp3182
a(I161
I111
g14
tp3183
a(I253
I110
g14
tp3184
asS'tmpV5Q5LR'
p3185
(lp3186
sS'tmpGMGavZ'
p3187
(lp3188
(I57
I96
g8
tp3189
a(I203
I113
g12
tp3190
a(I60
I98
g14
tp3191
a(I198
I108
g14
tp3192
asS'tmpYkgmFc'
p3193
(lp3194
sS'tmpE0O3oV'
p3195
(lp3196
(I163
I98
g8
tp3197
a(I257
I98
g12
tp3198
a(I70
I95
g14
tp3199
a(I172
I98
g14
tp3200
a(I251
I100
g14
tp3201
asS'tmpv5FfgA'
p3202
(lp3203
sS'tmpwLj3D5'
p3204
(lp3205
sS'tmpasHgzw'
p3206
(lp3207
sS'tmpbqDpCI'
p3208
(lp3209
sS'tmpFK6QsS'
p3210
(lp3211
(I171
I104
g8
tp3212
a(I75
I87
g8
tp3213
a(I256
I97
g12
tp3214
a(I79
I98
g14
tp3215
a(I175
I113
g14
tp3216
a(I260
I103
g14
tp3217
asS'tmpnVsoM4'
p3218
(lp3219
sS'tmp3mzMIo'
p3220
(lp3221
(I170
I120
g8
tp3222
a(I236
I119
g8
tp3223
a(I268
I103
g12
tp3224
a(I234
I115
g14
tp3225
a(I172
I112
g14
tp3226
a(I71
I111
g14
tp3227
asS'tmpsi7gkK'
p3228
(lp3229
sS'tmpjor0Jo'
p3230
(lp3231
sS'tmpfPaROi'
p3232
(lp3233
sS'tmpSWn1Ky'
p3234
(lp3235
sS'tmpKPdr3T'
p3236
(lp3237
(I83
I44
g45
tp3238
a(I179
I55
g45
tp3239
asS'tmp1o8Mc8'
p3240
(lp3241
(I73
I56
g45
tp3242
asS'tmpJT7Z4c'
p3243
(lp3244
sS'tmpD0oQeM'
p3245
(lp3246
(I175
I114
g8
tp3247
a(I252
I102
g12
tp3248
a(I74
I103
g14
tp3249
a(I174
I116
g14
tp3250
a(I251
I112
g14
tp3251
asS'tmpdmPOIQ'
p3252
(lp3253
sS'tmp2GFv60'
p3254
(lp3255
(I172
I115
g279
tp3256
a(I246
I102
g12
tp3257
a(I71
I103
g14
tp3258
a(I173
I118
g14
tp3259
a(I248
I110
g14
tp3260
asS'tmpyulQkl'
p3261
(lp3262
sS'tmp8oPj9Y'
p3263
(lp3264
(I75
I106
g8
tp3265
a(I168
I112
g8
tp3266
a(I260
I102
g12
tp3267
a(I72
I113
g14
tp3268
a(I170
I117
g14
tp3269
a(I261
I114
g14
tp3270
asS'tmp3MCkBl'
p3271
(lp3272
(I165
I120
g8
tp3273
a(I237
I119
g8
tp3274
a(I267
I104
g12
tp3275
a(I64
I105
g14
tp3276
a(I166
I117
g14
tp3277
a(I242
I123
g14
tp3278
asS'tmpsoUjQU'
p3279
(lp3280
sS'tmptIizj6'
p3281
(lp3282
sS'tmpqyKUjI'
p3283
(lp3284
sS'tmpEOH4md'
p3285
(lp3286
(I165
I109
g8
tp3287
a(I246
I107
g12
tp3288
a(I78
I98
g14
tp3289
a(I165
I110
g14
tp3290
a(I245
I115
g14
tp3291
asS'tmpytkgrZ'
p3292
(lp3293
sS'tmpozBSNf'
p3294
(lp3295
sS'tmpXrjp4Q'
p3296
(lp3297
sS'tmp6xW2YE'
p3298
(lp3299
(I180
I57
g45
tp3300
a(I78
I40
g45
tp3301
asS'tmpLBxGpd'
p3302
(lp3303
(I83
I89
g10
tp3304
asS'tmpv1jDlU'
p3305
(lp3306
sS'tmp4qFFCy'
p3307
(lp3308
(I172
I100
g12
tp3309
a(I67
I77
g14
tp3310
a(I237
I110
g14
tp3311
asS'tmpuv6xXX'
p3312
(lp3313
sS'tmpOdSzNe'
p3314
(lp3315
sS'tmp5ilPWQ'
p3316
(lp3317
(I175
I56
g8
tp3318
a(I244
I50
g8
tp3319
a(I268
I45
g12
tp3320
a(I84
I48
g14
tp3321
a(I176
I55
g14
tp3322
a(I241
I56
g14
tp3323
asS'tmpyygm4a'
p3324
(lp3325
sS'tmppu2G2l'
p3326
(lp3327
sS'tmpm6WYct'
p3328
(lp3329
sS'tmpXIEQdq'
p3330
(lp3331
sS'tmp3FAUiv'
p3332
(lp3333
(I169
I114
g8
tp3334
a(I70
I115
g8
tp3335
a(I244
I117
g8
tp3336
a(I251
I103
g12
tp3337
a(I75
I105
g14
tp3338
a(I167
I119
g14
tp3339
a(I244
I113
g14
tp3340
asS'tmpD2Ng4w'
p3341
(lp3342
(I168
I104
g8
tp3343
a(I244
I101
g12
tp3344
a(I74
I91
g14
tp3345
a(I164
I105
g14
tp3346
a(I239
I106
g14
tp3347
asS'tmpZdyRX1'
p3348
(lp3349
sS'tmpKgSy_y'
p3350
(lp3351
sS'tmpuamBH9'
p3352
(lp3353
sS'tmp2gHK9T'
p3354
(lp3355
(I77
I71
g45
tp3356
asS'tmp79e5xo'
p3357
(lp3358
(I68
I110
g8
tp3359
a(I158
I112
g8
tp3360
a(I250
I114
g8
tp3361
a(I166
I99
g12
tp3362
a(I68
I110
g14
tp3363
a(I159
I112
g14
tp3364
a(I248
I113
g14
tp3365
asS'tmp13FM0e'
p3366
(lp3367
(I69
I90
g259
tp3368
a(I165
I100
g259
tp3369
a(I163
I98
g12
tp3370
a(I71
I95
g14
tp3371
a(I161
I97
g14
tp3372
a(I242
I103
g14
tp3373
asS'tmpK6CQk8'
p3374
(lp3375
sS'tmpy0hVrH'
p3376
(lp3377
sS'tmpbcqGyl'
p3378
(lp3379
sS'tmpAgkJv7'
p3380
(lp3381
(I163
I112
g8
tp3382
a(I265
I105
g12
tp3383
a(I81
I103
g14
tp3384
a(I166
I117
g14
tp3385
a(I237
I121
g14
tp3386
asS'tmpvurpDY'
p3387
(lp3388
sS'tmpteMJGo'
p3389
(lp3390
s.