(dp1
S'tmp_mWhYh'
p2
(lp3
sS'tmpqzvx74'
p4
(lp5
sS'tmp75Gkuu'
p6
(lp7
(I166
I101
tp8
asS'tmpG3E_gG'
p9
(lp10
(I75
I95
tp11
asS'tmpzq6slG'
p12
(lp13
sS'tmpMzVNIG'
p14
(lp15
(I170
I98
tp16
a(I70
I92
tp17
asS'tmpblWN83'
p18
(lp19
sS'tmpnLOLZX'
p20
(lp21
sS'tmpLPUHqH'
p22
(lp23
(I176
I109
tp24
a(I73
I102
tp25
asS'tmpjF7YdM'
p26
(lp27
sS'tmpJtEZtu'
p28
(lp29
sS'tmp_vY9NB'
p30
(lp31
sS'tmpFKRlqg'
p32
(lp33
(I177
I98
tp34
asS'tmpIw_8L0'
p35
(lp36
(I66
I81
tp37
a(I156
I105
tp38
asS'tmp1u20JS'
p39
(lp40
(I75
I90
tp41
asS'tmp4Ci53G'
p42
(lp43
(I172
I93
tp44
asS'tmpAxebAw'
p45
(lp46
(I165
I111
tp47
asS'tmpWrvlV1'
p48
(lp49
sS'tmp2niOIl'
p50
(lp51
(I167
I106
tp52
asS'tmpQIUCm8'
p53
(lp54
(I166
I115
tp55
a(I73
I106
tp56
asS'tmpeZDP7N'
p57
(lp58
sS'tmp2g76Kf'
p59
(lp60
(I161
I114
tp61
asS'tmpFfeovW'
p62
(lp63
sS'tmp9ULyge'
p64
(lp65
(I162
I122
tp66
asS'tmpj626hH'
p67
(lp68
sS'tmpYr_u5h'
p69
(lp70
sS'tmpcdU7ye'
p71
(lp72
sS'tmp90t8B3'
p73
(lp74
(I71
I113
tp75
a(I165
I116
tp76
a(I237
I113
tp77
asS'tmpTX21MN'
p78
(lp79
(I70
I98
tp80
asS'tmp_cUThv'
p81
(lp82
sS'tmpYmwss4'
p83
(lp84
sS'tmpD0_pOw'
p85
(lp86
(I85
I50
tp87
a(I172
I59
tp88
a(I230
I58
tp89
asS'tmpzhbqAL'
p90
(lp91
sS'tmpjY3Lho'
p92
(lp93
sS'tmpv_8lVR'
p94
(lp95
sS'tmpgya2u4'
p96
(lp97
sS'tmp2Maxj9'
p98
(lp99
(I164
I110
tp100
a(I254
I96
tp101
asS'tmpsfaou1'
p102
(lp103
sS'tmpCoda5t'
p104
(lp105
(I83
I51
tp106
a(I174
I63
tp107
a(I235
I54
tp108
asS'tmpzFCQLY'
p109
(lp110
sS'tmp7jEKtK'
p111
(lp112
(I73
I94
tp113
a(I170
I103
tp114
a(I242
I110
tp115
asS'tmpdtwkrg'
p116
(lp117
sS'tmpLpDat_'
p118
(lp119
(I165
I112
tp120
a(I66
I98
tp121
asS'tmpRqzSXT'
p122
(lp123
(I72
I100
tp124
a(I163
I109
tp125
asS'tmpj2N7It'
p126
(lp127
sS'tmpuUIEup'
p128
(lp129
sS'tmp3eLr4q'
p130
(lp131
(I150
I121
tp132
a(I67
I100
tp133
asS'tmpCVYz5h'
p134
(lp135
(I258
I97
tp136
a(I161
I109
tp137
a(I71
I106
tp138
asS'tmpJovJCF'
p139
(lp140
(I167
I51
tp141
a(I266
I44
tp142
asS'tmpveWoDy'
p143
(lp144
sS'tmp7GLDGL'
p145
(lp146
(I74
I84
tp147
a(I170
I92
tp148
a(I253
I98
tp149
asS'tmpZQFYx4'
p150
(lp151
sS'tmpBZXy8X'
p152
(lp153
(I158
I112
tp154
a(I254
I117
tp155
asS'tmpMAGgZq'
p156
(lp157
(I243
I61
tp158
asS'tmpKq1jYO'
p159
(lp160
(I70
I118
tp161
a(I174
I119
tp162
a(I249
I116
tp163
asS'tmpUKzBtg'
p164
(lp165
(I250
I113
tp166
a(I172
I116
tp167
asS'tmpgcQsdb'
p168
(lp169
sS'tmpAhzlGr'
p170
(lp171
(I163
I119
tp172
asS'tmpXpDgv2'
p173
(lp174
sS'tmpfEf17t'
p175
(lp176
sS'tmp9hfRgm'
p177
(lp178
(I77
I103
tp179
a(I158
I93
tp180
asS'tmpFQEPMI'
p181
(lp182
(I181
I107
tp183
a(I81
I92
tp184
asS'tmp2McwTA'
p185
(lp186
(I169
I105
tp187
asS'tmpIWfpop'
p188
(lp189
(I63
I111
tp190
a(I163
I117
tp191
a(I256
I114
tp192
asS'tmp_zLx74'
p193
(lp194
sS'tmpBoZJKg'
p195
(lp196
(I163
I109
tp197
asS'tmpdhArYk'
p198
(lp199
sS'tmp3uQ4rw'
p200
(lp201
(I161
I103
tp202
asS'tmpdNwoVt'
p203
(lp204
sS'tmppQJHpa'
p205
(lp206
sS'tmpXX7l4l'
p207
(lp208
sS'tmparvXWm'
p209
(lp210
sS'tmpgrQ82j'
p211
(lp212
sS'tmpakw0YC'
p213
(lp214
sS'tmpi1BN7y'
p215
(lp216
sS'tmpQDCZxD'
p217
(lp218
(I166
I109
tp219
asS'tmpBAhl8y'
p220
(lp221
(I63
I106
tp222
a(I170
I118
tp223
asS'tmpfCBG13'
p224
(lp225
sS'tmp_XNyQF'
p226
(lp227
sS'tmp3SP0z9'
p228
(lp229
(I72
I93
tp230
a(I156
I98
tp231
asS'tmpHnhxYi'
p232
(lp233
(I78
I100
tp234
a(I160
I69
tp235
asS'tmpLQ5Le5'
p236
(lp237
(I66
I103
tp238
a(I173
I113
tp239
a(I260
I110
tp240
asS'tmpD3ckej'
p241
(lp242
(I167
I101
tp243
asS'tmpqcbor1'
p244
(lp245
sS'tmpYPSkej'
p246
(lp247
sS'tmpU6Kxn0'
p248
(lp249
(I80
I120
tp250
a(I158
I123
tp251
a(I257
I116
tp252
asS'tmpvtAKs8'
p253
(lp254
sS'tmpOyT_0p'
p255
(lp256
(I175
I64
tp257
a(I84
I52
tp258
asS'tmpQ_aIRt'
p259
(lp260
(I170
I114
tp261
asS'tmpok5sgv'
p262
(lp263
sS'tmpsRBdLB'
p264
(lp265
sS'tmpBiCque'
p266
(lp267
(I163
I106
tp268
a(I81
I102
tp269
asS'tmpYurRyb'
p270
(lp271
sS'tmpu1gGXr'
p272
(lp273
sS'tmprjzFlx'
p274
(lp275
(I75
I94
tp276
asS'tmpF9JkvP'
p277
(lp278
(I78
I99
tp279
a(I186
I100
tp280
asS'tmpDgxHnC'
p281
(lp282
sS'tmpj0MCSZ'
p283
(lp284
sS'tmp6SuccW'
p285
(lp286
(I174
I102
tp287
asS'tmpRU3F_t'
p288
(lp289
(I177
I63
tp290
a(I74
I49
tp291
asS'tmp9mIFar'
p292
(lp293
(I167
I116
tp294
a(I72
I104
tp295
asS'tmprDBkOr'
p296
(lp297
sS'tmpOwZ9mY'
p298
(lp299
(I158
I115
tp300
asS'tmprvTZEm'
p301
(lp302
sS'tmpZATvas'
p303
(lp304
sS'tmpGF4m1J'
p305
(lp306
(I167
I113
tp307
a(I244
I117
tp308
asS'tmpHfGqoF'
p309
(lp310
(I114
I73
tp311
asS'tmpiLENkY'
p312
(lp313
sS'tmp9CVCPF'
p314
(lp315
(I69
I87
tp316
a(I154
I104
tp317
asS'tmpkrXD5D'
p318
(lp319
sS'tmp4NhALY'
p320
(lp321
(I159
I96
tp322
asS'tmp7I5NGr'
p323
(lp324
(I160
I116
tp325
a(I71
I102
tp326
asS'tmplCMhp3'
p327
(lp328
sS'tmpPY921I'
p329
(lp330
(I160
I116
tp331
asS'tmp3AO1Sc'
p332
(lp333
(I168
I107
tp334
asS'tmpIUT7Ca'
p335
(lp336
(I167
I100
tp337
asS'tmpDM0_K9'
p338
(lp339
(I159
I97
tp340
a(I87
I82
tp341
asS'tmpcNo3f0'
p342
(lp343
sS'tmpzG0JVw'
p344
(lp345
sS'tmpe208Ee'
p346
(lp347
sS'tmpt1gHNK'
p348
(lp349
sS'tmpWA6Pir'
p350
(lp351
(I170
I109
tp352
a(I71
I96
tp353
a(I260
I100
tp354
asS'tmpjzAtZI'
p355
(lp356
sS'tmp4kOaj0'
p357
(lp358
(I78
I84
tp359
a(I243
I93
tp360
asS'tmpNRRbNz'
p361
(lp362
(I168
I123
tp363
a(I68
I125
tp364
asS'tmp5GDZqq'
p365
(lp366
(I63
I110
tp367
a(I169
I121
tp368
a(I246
I114
tp369
asS'tmps96HdO'
p370
(lp371
sS'tmpSNiiCD'
p372
(lp373
(I77
I49
tp374
a(I244
I51
tp375
asS'tmpUWS4Tt'
p376
(lp377
(I174
I101
tp378
a(I80
I102
tp379
asS'tmppI2I8H'
p380
(lp381
sS'tmpxh81Om'
p382
(lp383
sS'tmpZ5FAXb'
p384
(lp385
sS'tmpudaX49'
p386
(lp387
sS'tmpN0FlmE'
p388
(lp389
(I73
I92
tp390
asS'tmpD0fWDE'
p391
(lp392
(I76
I110
tp393
a(I169
I111
tp394
a(I236
I113
tp395
asS'tmprtKj3p'
p396
(lp397
sS'tmp2Pa0WU'
p398
(lp399
(I78
I96
tp400
a(I171
I115
tp401
a(I251
I112
tp402
asS'tmp5ilPWQ'
p403
(lp404
(I175
I59
tp405
a(I248
I49
tp406
asS'tmpy0hVrH'
p407
(lp408
sS'tmpBQnaC5'
p409
(lp410
(I72
I103
tp411
asS'tmpirDmrM'
p412
(lp413
sS'tmptPNI87'
p414
(lp415
sS'tmp0pzufr'
p416
(lp417
(I78
I94
tp418
a(I183
I104
tp419
asS'tmpjUbM5Z'
p420
(lp421
sS'tmpocydkg'
p422
(lp423
sS'tmpYOGiyi'
p424
(lp425
sS'tmpnTCwaK'
p426
(lp427
sS'tmp57yR2b'
p428
(lp429
(I162
I111
tp430
a(I256
I113
tp431
asS'tmp7CCut3'
p432
(lp433
(I259
I93
tp434
asS'tmp1mjDg3'
p435
(lp436
(I65
I113
tp437
a(I163
I110
tp438
a(I247
I116
tp439
asS'tmp_3KoM5'
p440
(lp441
sS'tmpCK_P6c'
p442
(lp443
sS'tmpm50WZl'
p444
(lp445
sS'tmpGOOZma'
p446
(lp447
(I75
I97
tp448
a(I179
I118
tp449
asS'tmp9qkM7v'
p450
(lp451
(I157
I110
tp452
a(I255
I89
tp453
asS'tmpSyJsTj'
p454
(lp455
(I69
I130
tp456
a(I148
I122
tp457
asS'tmpzVS2sx'
p458
(lp459
sS'tmpq_YlOm'
p460
(lp461
sS'tmpfbvRpq'
p462
(lp463
sS'tmp4qFFCy'
p464
(lp465
sS'tmp8foduK'
p466
(lp467
(I159
I119
tp468
asS'tmp8kehDp'
p469
(lp470
(I164
I110
tp471
a(I79
I89
tp472
asS'tmp5oTvNo'
p473
(lp474
(I165
I111
tp475
a(I70
I108
tp476
asS'tmppl4oW7'
p477
(lp478
sS'tmp2kZ5bu'
p479
(lp480
(I160
I109
tp481
a(I255
I113
tp482
asS'tmpQG9BeO'
p483
(lp484
(I68
I95
tp485
a(I158
I102
tp486
asS'tmp4JLrpB'
p487
(lp488
sS'tmpgeRdXs'
p489
(lp490
sS'tmpt2CL5H'
p491
(lp492
sS'tmp_bw7Kt'
p493
(lp494
sS'tmpFAEVtX'
p495
(lp496
(I164
I120
tp497
a(I249
I113
tp498
asS'tmp1TzKrE'
p499
(lp500
(I73
I102
tp501
a(I168
I100
tp502
asS'tmpEr770S'
p503
(lp504
sS'tmpBCYoxh'
p505
(lp506
(I85
I113
tp507
a(I163
I114
tp508
asS'tmpf0pc2K'
p509
(lp510
sS'tmpNL_C34'
p511
(lp512
sS'tmpPwSreF'
p513
(lp514
(I172
I59
tp515
a(I253
I51
tp516
asS'tmppgIPO6'
p517
(lp518
sS'tmpWSw6hQ'
p519
(lp520
(I173
I72
tp521
a(I234
I64
tp522
a(I83
I58
tp523
asS'tmpeLD32m'
p524
(lp525
sS'tmpTc7huQ'
p526
(lp527
(I162
I119
tp528
asS'tmpAhd961'
p529
(lp530
(I75
I110
tp531
a(I167
I115
tp532
asS'tmpqWGU_v'
p533
(lp534
sS'tmp9vXwYw'
p535
(lp536
sS'tmpPGDp3z'
p537
(lp538
(I153
I98
tp539
a(I237
I97
tp540
asS'tmpkF_uRj'
p541
(lp542
sS'tmp7EJOVq'
p543
(lp544
sS'tmpAIKBMQ'
p545
(lp546
(I69
I96
tp547
a(I166
I107
tp548
asS'tmpca7ESm'
p549
(lp550
sS'tmpyKZ17Y'
p551
(lp552
sS'tmp7TJpwp'
p553
(lp554
(I205
I110
tp555
a(I58
I95
tp556
asS'tmprlWcSs'
p557
(lp558
sS'tmpszlVeY'
p559
(lp560
sS'tmpmT9JCQ'
p561
(lp562
sS'tmpoxUCSs'
p563
(lp564
sS'tmpGlxhyP'
p565
(lp566
(I160
I116
tp567
asS'tmp1xgY7N'
p568
(lp569
(I70
I89
tp570
a(I160
I110
tp571
asS'tmp0OF7TW'
p572
(lp573
(I69
I129
tp574
a(I235
I117
tp575
a(I168
I120
tp576
asS'tmpClENxk'
p577
(lp578
(I162
I117
tp579
a(I65
I106
tp580
asS'tmpZoR0wZ'
p581
(lp582
sS'tmpp7UsSz'
p583
(lp584
sS'tmpTyKZt3'
p585
(lp586
(I61
I94
tp587
asS'tmpY3hib7'
p588
(lp589
sS'tmpR5wUtp'
p590
(lp591
(I171
I111
tp592
asS'tmpwquTzW'
p593
(lp594
sS'tmp5WLnLx'
p595
(lp596
(I74
I109
tp597
a(I168
I113
tp598
a(I243
I115
tp599
asS'tmp1Mw6Zt'
p600
(lp601
(I71
I114
tp602
a(I161
I112
tp603
asS'tmpxUWFEx'
p604
(lp605
sS'tmpBy8L7X'
p606
(lp607
(I167
I114
tp608
a(I73
I92
tp609
asS'tmpbN3rrl'
p610
(lp611
sS'tmpStfsi2'
p612
(lp613
(I174
I106
tp614
a(I81
I93
tp615
asS'tmpXpzyle'
p616
(lp617
sS'tmpK7jXMg'
p618
(lp619
(I168
I111
tp620
asS'tmpLd37Zt'
p621
(lp622
(I166
I112
tp623
asS'tmpWgodg9'
p624
(lp625
sS'tmpa5a62l'
p626
(lp627
sS'tmp95lBNl'
p628
(lp629
(I168
I108
tp630
a(I68
I109
tp631
asS'tmpgFy5bo'
p632
(lp633
sS'tmpdXhSBP'
p634
(lp635
sS'tmpHICx1R'
p636
(lp637
(I88
I100
tp638
a(I314
I126
tp639
asS'tmplf2VQ9'
p640
(lp641
sS'tmprjlS7n'
p642
(lp643
(I166
I100
tp644
asS'tmpUAbLEs'
p645
(lp646
(I177
I107
tp647
asS'tmpO2QjB9'
p648
(lp649
(I76
I38
tp650
asS'tmpZ6rPy_'
p651
(lp652
sS'tmpeFoZEl'
p653
(lp654
sS'tmpSEESK6'
p655
(lp656
(I181
I98
tp657
asS'tmpYB_OK2'
p658
(lp659
sS'tmpheXyAu'
p660
(lp661
sS'tmpsZiRPg'
p662
(lp663
sS'tmp5BGFXF'
p664
(lp665
(I70
I92
tp666
a(I246
I91
tp667
asS'tmpzUoVkI'
p668
(lp669
sS'tmppumegR'
p670
(lp671
sS'tmpPyXRry'
p672
(lp673
(I173
I110
tp674
a(I77
I93
tp675
asS'tmpipvkM9'
p676
(lp677
sS'tmpknew6m'
p678
(lp679
sS'tmp6Z7oVD'
p680
(lp681
(I163
I94
tp682
a(I84
I80
tp683
asS'tmpExbKBr'
p684
(lp685
(I158
I99
tp686
asS'tmpUIcZw4'
p687
(lp688
(I158
I109
tp689
a(I259
I96
tp690
asS'tmpoRjuko'
p691
(lp692
sS'tmpLPDfBf'
p693
(lp694
(I167
I107
tp695
asS'tmpyrTYcG'
p696
(lp697
sS'tmpMQ8yTg'
p698
(lp699
(I174
I102
tp700
asS'tmp3ZlqXG'
p701
(lp702
(I166
I98
tp703
asS'tmpakSZmA'
p704
(lp705
sS'tmpT1no2S'
p706
(lp707
(I161
I99
tp708
a(I225
I97
tp709
asS'tmpcBhVd9'
p710
(lp711
sS'tmpOQ2phW'
p712
(lp713
(I178
I55
tp714
asS'tmpmFFpWO'
p715
(lp716
sS'tmpOrZ3ME'
p717
(lp718
(I165
I103
tp719
a(I74
I100
tp720
asS'tmpWeWVEx'
p721
(lp722
(I166
I105
tp723
a(I75
I101
tp724
asS'tmpAmIku0'
p725
(lp726
(I165
I119
tp727
asS'tmpoUie17'
p728
(lp729
sS'tmpx8Nwcl'
p730
(lp731
sS'tmpg1fgEJ'
p732
(lp733
sS'tmphTtImw'
p734
(lp735
sS'tmpkHUqTB'
p736
(lp737
sS'tmpGX47vA'
p738
(lp739
(I71
I87
tp740
asS'tmppu2G2l'
p741
(lp742
sS'tmpn6Wswf'
p743
(lp744
sS'tmpeZqj6c'
p745
(lp746
sS'tmpz1LXPE'
p747
(lp748
sS'tmptT9ofb'
p749
(lp750
sS'tmpXacWHx'
p751
(lp752
sS'tmpqeKq96'
p753
(lp754
sS'tmp1BFQag'
p755
(lp756
(I166
I111
tp757
asS'tmpbvQQqy'
p758
(lp759
sS'tmp7GP54f'
p760
(lp761
(I165
I113
tp762
asS'tmpbR7x_D'
p763
(lp764
sS'tmpeOoGsl'
p765
(lp766
sS'tmpVri5YA'
p767
(lp768
sS'tmpyyskNO'
p769
(lp770
sS'tmpwIv3es'
p771
(lp772
sS'tmpoXZIgV'
p773
(lp774
sS'tmpIrsDGS'
p775
(lp776
(I159
I96
tp777
a(I227
I107
tp778
asS'tmpzphk7F'
p779
(lp780
sS'tmpYJrnmR'
p781
(lp782
sS'tmplSkS8i'
p783
(lp784
sS'tmps6iC9U'
p785
(lp786
sS'tmpuyBeMH'
p787
(lp788
sS'tmpyMPc7r'
p789
(lp790
sS'tmpM8MYnG'
p791
(lp792
(I178
I111
tp793
asS'tmpfbdjMk'
p794
(lp795
sS'tmpeMuXIQ'
p796
(lp797
sS'tmpKlDxH1'
p798
(lp799
(I167
I102
tp800
asS'tmpSVPz3u'
p801
(lp802
(I71
I132
tp803
a(I168
I124
tp804
a(I239
I120
tp805
asS'tmpDVzwlF'
p806
(lp807
(I171
I56
tp808
a(I94
I38
tp809
asS'tmprDR9wW'
p810
(lp811
sS'tmpkgbEVD'
p812
(lp813
sS'tmpu2PhEB'
p814
(lp815
sS'tmpKjDJk9'
p816
(lp817
(I163
I116
tp818
a(I251
I108
tp819
asS'tmpOvfwHw'
p820
(lp821
(I160
I92
tp822
asS'tmpCSwEKB'
p823
(lp824
(I174
I94
tp825
asS'tmpIXSxUG'
p826
(lp827
(I83
I109
tp828
a(I158
I119
tp829
asS'tmpiQUeZ9'
p830
(lp831
sS'tmprKeSYj'
p832
(lp833
sS'tmp41N6lJ'
p834
(lp835
(I243
I102
tp836
a(I170
I101
tp837
asS'tmpEOH4md'
p838
(lp839
(I167
I113
tp840
asS'tmpP4RSOG'
p841
(lp842
(I85
I94
tp843
a(I183
I113
tp844
asS'tmpILSWsR'
p845
(lp846
(I68
I86
tp847
a(I152
I104
tp848
asS'tmpVMHANa'
p849
(lp850
(I168
I99
tp851
asS'tmpV5DrmN'
p852
(lp853
(I162
I101
tp854
asS'tmpr2OhBh'
p855
(lp856
sS'tmppsnf_p'
p857
(lp858
sS'tmpeQrxPh'
p859
(lp860
sS'tmpkvMxFZ'
p861
(lp862
sS'tmps69nSs'
p863
(lp864
sS'tmpMIUPCX'
p865
(lp866
(I66
I107
tp867
a(I176
I105
tp868
a(I243
I111
tp869
asS'tmpXQWqoN'
p870
(lp871
sS'tmp3W94mW'
p872
(lp873
(I172
I106
tp874
asS'tmpHw9B6t'
p875
(lp876
(I167
I104
tp877
a(I251
I104
tp878
asS'tmpXE22Y6'
p879
(lp880
sS'tmpA0tAKN'
p881
(lp882
(I159
I92
tp883
a(I71
I88
tp884
asS'tmpTN_Y8a'
p885
(lp886
(I244
I56
tp887
a(I175
I58
tp888
a(I77
I39
tp889
asS'tmpGbIRdn'
p890
(lp891
(I73
I50
tp892
a(I242
I52
tp893
asS'tmpKZVUwT'
p894
(lp895
sS'tmplqPiDk'
p896
(lp897
sS'tmp4MiTbh'
p898
(lp899
(I75
I95
tp900
a(I167
I106
tp901
asS'tmpuZSiv0'
p902
(lp903
sS'tmpfEz9O2'
p904
(lp905
sS'tmpFGqKLa'
p906
(lp907
(I175
I109
tp908
a(I80
I96
tp909
asS'tmpjb2hU2'
p910
(lp911
sS'tmpXn_1OO'
p912
(lp913
sS'tmpmCeY5V'
p914
(lp915
sS'tmpHQtKys'
p916
(lp917
(I82
I47
tp918
a(I174
I70
tp919
a(I235
I56
tp920
asS'tmpmKkCJi'
p921
(lp922
sS'tmpJT7Z4c'
p923
(lp924
(I308
I100
tp925
asS'tmpCSRzXA'
p926
(lp927
(I53
I93
tp928
a(I149
I109
tp929
a(I210
I103
tp930
asS'tmpxVQ4N1'
p931
(lp932
sS'tmp8LriFB'
p933
(lp934
(I165
I112
tp935
a(I67
I106
tp936
asS'tmp6OOyQk'
p937
(lp938
(I247
I52
tp939
asS'tmpMdZvJf'
p940
(lp941
(I164
I115
tp942
asS'tmpk8oRQl'
p943
(lp944
sS'tmpsiib4b'
p945
(lp946
sS'tmpaiPCo0'
p947
(lp948
sS'tmp2ZFwzV'
p949
(lp950
(I258
I115
tp951
a(I184
I107
tp952
asS'tmpNH6BuF'
p953
(lp954
(I74
I100
tp955
a(I166
I109
tp956
asS'tmp2g69Kj'
p957
(lp958
(I167
I98
tp959
asS'tmpMUkGTx'
p960
(lp961
sS'tmpaWAhop'
p962
(lp963
sS'tmpNmsJZv'
p964
(lp965
(I169
I89
tp966
asS'tmpgwTdRm'
p967
(lp968
sS'tmpt4PQGc'
p969
(lp970
sS'tmpmFdMMO'
p971
(lp972
sS'tmpx4hopM'
p973
(lp974
sS'tmpFUFWr5'
p975
(lp976
(I161
I106
tp977
asS'tmp9r82qO'
p978
(lp979
(I203
I108
tp980
a(I149
I112
tp981
a(I55
I102
tp982
asS'tmpqrSee0'
p983
(lp984
sS'tmpf5DKg6'
p985
(lp986
sS'tmpGMGavZ'
p987
(lp988
(I54
I95
tp989
asS'tmp8PXXQR'
p990
(lp991
(I75
I87
tp992
a(I158
I94
tp993
a(I250
I99
tp994
asS'tmpwLj3D5'
p995
(lp996
sS'tmpasHgzw'
p997
(lp998
sS'tmpFK6QsS'
p999
(lp1000
(I171
I107
tp1001
a(I77
I84
tp1002
asS'tmpvwJLuQ'
p1003
(lp1004
sS'tmp3mzMIo'
p1005
(lp1006
(I171
I116
tp1007
a(I235
I118
tp1008
asS'tmpSWn1Ky'
p1009
(lp1010
(I238
I116
tp1011
a(I162
I131
tp1012
a(I67
I132
tp1013
asS'tmpqAaHsn'
p1014
(lp1015
sS'tmpD0oQeM'
p1016
(lp1017
(I174
I115
tp1018
asS'tmpyulQkl'
p1019
(lp1020
sS'tmpytkgrZ'
p1021
(lp1022
sS'tmpmYDi5z'
p1023
(lp1024
sS'tmpXrjp4Q'
p1025
(lp1026
sS'tmpLBxGpd'
p1027
(lp1028
(I170
I89
tp1029
asS'tmpv1jDlU'
p1030
(lp1031
sS'tmp8R8jrQ'
p1032
(lp1033
(I175
I57
tp1034
a(I80
I51
tp1035
asS'tmpOdSzNe'
p1036
(lp1037
(I163
I106
tp1038
asS'tmpGZJcsU'
p1039
(lp1040
(I163
I94
tp1041
asS'tmpteMJGo'
p1042
(lp1043
sS'tmpK6CQk8'
p1044
(lp1045
(I78
I48
tp1046
a(I178
I67
tp1047
asS'tmpuamBH9'
p1048
(lp1049
sS'tmp79e5xo'
p1050
(lp1051
(I71
I116
tp1052
a(I162
I116
tp1053
a(I251
I114
tp1054
asS'tmp13FM0e'
p1055
(lp1056
(I70
I91
tp1057
a(I160
I103
tp1058
asS'tmpbcqGyl'
p1059
(lp1060
sS'tmpvurpDY'
p1061
(lp1062
sS'tmpSfpMWQ'
p1063
(lp1064
(I165
I109
tp1065
asS'tmpF7regW'
p1066
(lp1067
(I172
I52
tp1068
a(I79
I41
tp1069
asS'tmp8RfwpD'
p1070
(lp1071
(I163
I114
tp1072
asS'tmpuRLbB5'
p1073
(lp1074
sS'tmpitt9YW'
p1075
(lp1076
sS'tmpFbalWm'
p1077
(lp1078
(I71
I115
tp1079
asS'tmpQJbvkh'
p1080
(lp1081
(I159
I107
tp1082
a(I70
I90
tp1083
asS'tmp7HRQqL'
p1084
(lp1085
(I165
I100
tp1086
asS'tmpZfP9Z3'
p1087
(lp1088
sS'tmpzlb9Ez'
p1089
(lp1090
sS'tmp4pNt5Q'
p1091
(lp1092
(I87
I61
tp1093
a(I158
I56
tp1094
asS'tmp3Q_cxq'
p1095
(lp1096
(I73
I102
tp1097
a(I171
I102
tp1098
asS'tmpUYvWaM'
p1099
(lp1100
(I163
I103
tp1101
asS'tmpqbNDSC'
p1102
(lp1103
sS'tmpb_28ip'
p1104
(lp1105
sS'tmp3PCsy5'
p1106
(lp1107
(I74
I84
tp1108
a(I234
I106
tp1109
asS'tmpPKGDma'
p1110
(lp1111
sS'tmp4noNUj'
p1112
(lp1113
(I170
I105
tp1114
asS'tmpHpIR06'
p1115
(lp1116
(I167
I104
tp1117
asS'tmpiUDBT0'
p1118
(lp1119
sS'tmpg3Sl2b'
p1120
(lp1121
sS'tmpRGnFM7'
p1122
(lp1123
(I75
I96
tp1124
a(I171
I102
tp1125
asS'tmpTp560a'
p1126
(lp1127
(I75
I93
tp1128
asS'tmp7exFr3'
p1129
(lp1130
sS'tmp5MHSQV'
p1131
(lp1132
(I66
I70
tp1133
asS'tmpFIGvlb'
p1134
(lp1135
(I167
I122
tp1136
a(I66
I103
tp1137
asS'tmpOPWAqN'
p1138
(lp1139
(I155
I105
tp1140
asS'tmp1kXDHr'
p1141
(lp1142
(I70
I103
tp1143
a(I167
I112
tp1144
a(I243
I110
tp1145
asS'tmpNVd6fm'
p1146
(lp1147
(I168
I110
tp1148
asS'tmpkioKJZ'
p1149
(lp1150
sS'tmp24aVLW'
p1151
(lp1152
(I170
I55
tp1153
asS'tmpo972h6'
p1154
(lp1155
sS'tmp2akNBL'
p1156
(lp1157
(I66
I88
tp1158
asS'tmpqKUG4W'
p1159
(lp1160
sS'tmpx6YLcS'
p1161
(lp1162
sS'tmpOodJqU'
p1163
(lp1164
(I159
I110
tp1165
asS'tmp13jbSQ'
p1166
(lp1167
sS'tmpSGJ0sT'
p1168
(lp1169
(I168
I92
tp1170
asS'tmpLYkHSn'
p1171
(lp1172
(I176
I107
tp1173
asS'tmp0_G7IE'
p1174
(lp1175
(I72
I108
tp1176
a(I171
I105
tp1177
asS'tmpcD1aWc'
p1178
(lp1179
sS'tmp2ol3uJ'
p1180
(lp1181
(I78
I90
tp1182
asS'tmpZRA0Ai'
p1183
(lp1184
sS'tmpxOlMJ3'
p1185
(lp1186
sS'tmpv4ISbu'
p1187
(lp1188
sS'tmpYQVxGC'
p1189
(lp1190
sS'tmp4o9bL0'
p1191
(lp1192
(I70
I97
tp1193
a(I169
I111
tp1194
a(I246
I103
tp1195
asS'tmpMIEBBr'
p1196
(lp1197
(I179
I52
tp1198
asS'tmpufFQjO'
p1199
(lp1200
sS'tmplXVR7M'
p1201
(lp1202
sS'tmpUrmCCI'
p1203
(lp1204
(I163
I110
tp1205
asS'tmpO38Z30'
p1206
(lp1207
(I70
I130
tp1208
a(I166
I128
tp1209
a(I239
I119
tp1210
asS'tmpQkr8C1'
p1211
(lp1212
(I170
I105
tp1213
a(I70
I109
tp1214
asS'tmpQIVVWQ'
p1215
(lp1216
(I169
I103
tp1217
a(I266
I102
tp1218
asS'tmpgfv9xg'
p1219
(lp1220
sS'tmpV2ia3M'
p1221
(lp1222
(I161
I110
tp1223
a(I64
I103
tp1224
asS'tmpTBGgrQ'
p1225
(lp1226
(I161
I113
tp1227
a(I79
I91
tp1228
asS'tmpjOEuKx'
p1229
(lp1230
sS'tmpiguYqw'
p1231
(lp1232
sS'tmpQ2CIHj'
p1233
(lp1234
(I77
I99
tp1235
a(I168
I109
tp1236
asS'tmpPGnEPZ'
p1237
(lp1238
sS'tmpdmfDjq'
p1239
(lp1240
sS'tmprJOYDX'
p1241
(lp1242
sS'tmp28BFvs'
p1243
(lp1244
(I66
I130
tp1245
a(I236
I118
tp1246
a(I165
I129
tp1247
asS'tmpBCW_jW'
p1248
(lp1249
(I70
I91
tp1250
asS'tmpGvCJJc'
p1251
(lp1252
(I252
I116
tp1253
a(I172
I112
tp1254
asS'tmpyS49ko'
p1255
(lp1256
sS'tmpemjquv'
p1257
(lp1258
sS'tmpsoUjQU'
p1259
(lp1260
sS'tmpZzSJ6O'
p1261
(lp1262
sS'tmpbc8QPq'
p1263
(lp1264
sS'tmpKDYTzG'
p1265
(lp1266
(I172
I55
tp1267
asS'tmphvXlkY'
p1268
(lp1269
sS'tmp0NSmyk'
p1270
(lp1271
(I84
I92
tp1272
a(I174
I106
tp1273
asS'tmpkODR3F'
p1274
(lp1275
sS'tmplmueIH'
p1276
(lp1277
sS'tmpL1QALU'
p1278
(lp1279
(I94
I124
tp1280
asS'tmpiGMBEB'
p1281
(lp1282
sS'tmpsJyEKn'
p1283
(lp1284
sS'tmpk8Aix4'
p1285
(lp1286
sS'tmpNsWw_B'
p1287
(lp1288
(I162
I115
tp1289
a(I75
I91
tp1290
asS'tmprVG4PC'
p1291
(lp1292
sS'tmpGFOelr'
p1293
(lp1294
(I179
I89
tp1295
asS'tmpU1f7Ug'
p1296
(lp1297
(I73
I105
tp1298
asS'tmpQLMTsH'
p1299
(lp1300
(I75
I98
tp1301
a(I177
I101
tp1302
asS'tmpEdbEQH'
p1303
(lp1304
(I179
I96
tp1305
asS'tmpcMnZsN'
p1306
(lp1307
sS'tmpaLu6Kx'
p1308
(lp1309
sS'tmppvvTxa'
p1310
(lp1311
sS'tmpIcOz7P'
p1312
(lp1313
(I76
I89
tp1314
a(I167
I103
tp1315
a(I248
I91
tp1316
asS'tmpTvYBfy'
p1317
(lp1318
(I173
I110
tp1319
asS'tmpCyHOlL'
p1320
(lp1321
(I158
I112
tp1322
a(I68
I105
tp1323
asS'tmpsXil3l'
p1324
(lp1325
sS'tmpcLpXNz'
p1326
(lp1327
sS'tmp8SdLAC'
p1328
(lp1329
(I165
I104
tp1330
asS'tmpszifKc'
p1331
(lp1332
sS'tmp0ukqvy'
p1333
(lp1334
(I159
I106
tp1335
asS'tmpsFajq3'
p1336
(lp1337
sS'tmpH9RiEn'
p1338
(lp1339
(I172
I96
tp1340
a(I68
I93
tp1341
asS'tmpmjeO17'
p1342
(lp1343
sS'tmpi6NCNd'
p1344
(lp1345
sS'tmpBr4FNS'
p1346
(lp1347
(I170
I104
tp1348
asS'tmpLZlhUU'
p1349
(lp1350
(I167
I56
tp1351
a(I230
I59
tp1352
asS'tmpklJNK1'
p1353
(lp1354
sS'tmpfBR5B6'
p1355
(lp1356
sS'tmpwuM9XC'
p1357
(lp1358
sS'tmpW2_3h_'
p1359
(lp1360
(I170
I109
tp1361
asS'tmpayMJUo'
p1362
(lp1363
sS'tmpkZ03CL'
p1364
(lp1365
sS'tmpwSlhrR'
p1366
(lp1367
sS'tmpiwlPxh'
p1368
(lp1369
sS'tmpx6eAbz'
p1370
(lp1371
sS'tmprkjfdz'
p1372
(lp1373
sS'tmpWkn063'
p1374
(lp1375
(I168
I97
tp1376
asS'tmpi4oeRM'
p1377
(lp1378
sS'tmpT0VXAd'
p1379
(lp1380
(I70
I86
tp1381
asS'tmpJgy1Tk'
p1382
(lp1383
(I167
I112
tp1384
a(I82
I112
tp1385
asS'tmpLGKaU6'
p1386
(lp1387
(I174
I70
tp1388
a(I80
I43
tp1389
asS'tmpkgoNyL'
p1390
(lp1391
sS'tmpkGMkyu'
p1392
(lp1393
sS'tmp5rTH9O'
p1394
(lp1395
(I177
I111
tp1396
a(I251
I110
tp1397
asS'tmppRrQLx'
p1398
(lp1399
sS'tmpPj3PCX'
p1400
(lp1401
(I75
I80
tp1402
a(I163
I77
tp1403
a(I234
I79
tp1404
asS'tmpfXTn5j'
p1405
(lp1406
sS'tmpvfBBK5'
p1407
(lp1408
sS'tmpjnL1Dl'
p1409
(lp1410
sS'tmpjA_Tre'
p1411
(lp1412
sS'tmprrf_4i'
p1413
(lp1414
sS'tmpWu0d1a'
p1415
(lp1416
sS'tmpfQNM1S'
p1417
(lp1418
sS'tmpn12rCd'
p1419
(lp1420
sS'tmp6RK4te'
p1421
(lp1422
(I172
I112
tp1423
a(I73
I101
tp1424
asS'tmpftulin'
p1425
(lp1426
sS'tmpgSB1l3'
p1427
(lp1428
sS'tmpFH7tf1'
p1429
(lp1430
sS'tmpcJlVbM'
p1431
(lp1432
sS'tmpWx3e7x'
p1433
(lp1434
sS'tmphsRynL'
p1435
(lp1436
sS'tmpSHWQ7P'
p1437
(lp1438
(I163
I112
tp1439
a(I70
I95
tp1440
asS'tmp1kfwum'
p1441
(lp1442
(I169
I90
tp1443
asS'tmp6Q_AGL'
p1444
(lp1445
(I243
I62
tp1446
asS'tmpiu8Z9R'
p1447
(lp1448
sS'tmpJMnotk'
p1449
(lp1450
(I73
I104
tp1451
a(I179
I112
tp1452
a(I263
I110
tp1453
asS'tmpv71Ccf'
p1454
(lp1455
sS'tmp4Prulc'
p1456
(lp1457
(I159
I116
tp1458
asS'tmpnU0Tn8'
p1459
(lp1460
sS'tmpSXmdLT'
p1461
(lp1462
(I171
I113
tp1463
asS'tmpwcZgxy'
p1464
(lp1465
sS'tmpO3bUP8'
p1466
(lp1467
(I180
I103
tp1468
asS'tmpHL6MVD'
p1469
(lp1470
(I254
I94
tp1471
a(I161
I102
tp1472
a(I76
I99
tp1473
asS'tmptFjFuS'
p1474
(lp1475
sS'tmpnTupkp'
p1476
(lp1477
sS'tmpyo3MYQ'
p1478
(lp1479
sS'tmphC7Vr7'
p1480
(lp1481
sS'tmp8EC_Oz'
p1482
(lp1483
sS'tmpcYUXAQ'
p1484
(lp1485
sS'tmpaFz15V'
p1486
(lp1487
sS'tmpXiYnA8'
p1488
(lp1489
sS'tmp0se_Po'
p1490
(lp1491
(I78
I51
tp1492
a(I175
I60
tp1493
asS'tmpf4VLlg'
p1494
(lp1495
sS'tmp9_r9Rr'
p1496
(lp1497
(I164
I110
tp1498
asS'tmpoM1Xgu'
p1499
(lp1500
sS'tmp2WVDQ8'
p1501
(lp1502
(I79
I48
tp1503
a(I170
I59
tp1504
asS'tmpGpqiMU'
p1505
(lp1506
(I160
I116
tp1507
a(I79
I88
tp1508
a(I224
I125
tp1509
asS'tmpHedvZO'
p1510
(lp1511
(I162
I105
tp1512
a(I79
I101
tp1513
asS'tmp4ROFrQ'
p1514
(lp1515
(I250
I106
tp1516
a(I169
I104
tp1517
asS'tmpD0cApn'
p1518
(lp1519
sS'tmpE4e6dk'
p1520
(lp1521
(I77
I89
tp1522
a(I170
I101
tp1523
asS'tmpTKn2GR'
p1524
(lp1525
(I163
I108
tp1526
a(I251
I100
tp1527
asS'tmpFs3oWk'
p1528
(lp1529
(I78
I46
tp1530
a(I179
I62
tp1531
a(I247
I49
tp1532
asS'tmpWT4Dkq'
p1533
(lp1534
(I167
I104
tp1535
a(I246
I109
tp1536
asS'tmpYR3uTz'
p1537
(lp1538
sS'tmpVG0uz4'
p1539
(lp1540
(I247
I96
tp1541
a(I167
I94
tp1542
asS'tmpIFpvBe'
p1543
(lp1544
(I74
I87
tp1545
asS'tmpnCF2a9'
p1546
(lp1547
sS'tmpld7MGu'
p1548
(lp1549
sS'tmpfStvjW'
p1550
(lp1551
sS'tmpnBvlfD'
p1552
(lp1553
sS'tmpcTGMa8'
p1554
(lp1555
sS'tmpz7_5oJ'
p1556
(lp1557
sS'tmpfV_Jo0'
p1558
(lp1559
sS'tmpMiaTI9'
p1560
(lp1561
(I76
I46
tp1562
asS'tmpPfziLW'
p1563
(lp1564
(I177
I110
tp1565
a(I75
I93
tp1566
asS'tmpg2wnmK'
p1567
(lp1568
sS'tmpsPcLu6'
p1569
(lp1570
sS'tmpfN32lw'
p1571
(lp1572
sS'tmpXURTJc'
p1573
(lp1574
sS'tmpGhAD_9'
p1575
(lp1576
(I168
I113
tp1577
asS'tmpRXose1'
p1578
(lp1579
(I80
I89
tp1580
asS'tmp9V5whA'
p1581
(lp1582
(I70
I130
tp1583
a(I162
I123
tp1584
a(I237
I117
tp1585
asS'tmp459wDC'
p1586
(lp1587
(I72
I99
tp1588
a(I167
I113
tp1589
asS'tmpaareUq'
p1590
(lp1591
sS'tmpCzLNdr'
p1592
(lp1593
(I171
I106
tp1594
asS'tmpDdJmK7'
p1595
(lp1596
(I77
I110
tp1597
a(I184
I109
tp1598
asS'tmpjor0Jo'
p1599
(lp1600
sS'tmptCOZg7'
p1601
(lp1602
sS'tmpgcYxU3'
p1603
(lp1604
sS'tmpDo0c_9'
p1605
(lp1606
(I161
I104
tp1607
a(I250
I109
tp1608
asS'tmpKgSy_y'
p1609
(lp1610
(I80
I100
tp1611
a(I177
I110
tp1612
asS'tmpg2mt80'
p1613
(lp1614
sS'tmpQRYW7n'
p1615
(lp1616
sS'tmp4dLdRE'
p1617
(lp1618
(I162
I111
tp1619
a(I74
I96
tp1620
a(I246
I105
tp1621
asS'tmpfgaqAg'
p1622
(lp1623
sS'tmpcvklvG'
p1624
(lp1625
sS'tmp_SGUJA'
p1626
(lp1627
sS'tmpM2UA3G'
p1628
(lp1629
(I166
I112
tp1630
a(I75
I110
tp1631
asS'tmpKoP8Rq'
p1632
(lp1633
(I101
I42
tp1634
a(I170
I53
tp1635
asS'tmpjM13m_'
p1636
(lp1637
sS'tmpB8R_RT'
p1638
(lp1639
(I168
I51
tp1640
a(I74
I42
tp1641
asS'tmpMfI67y'
p1642
(lp1643
(I164
I107
tp1644
asS'tmpFoLF8E'
p1645
(lp1646
(I158
I105
tp1647
asS'tmpNEJQhi'
p1648
(lp1649
(I168
I112
tp1650
asS'tmp7n_xEO'
p1651
(lp1652
(I175
I58
tp1653
asS'tmpqXkXGU'
p1654
(lp1655
sS'tmpyNEL99'
p1656
(lp1657
sS'tmp6MLFBo'
p1658
(lp1659
(I83
I96
tp1660
asS'tmptpxQvi'
p1661
(lp1662
sS'tmphkBXJl'
p1663
(lp1664
sS'tmpgtp6o2'
p1665
(lp1666
sS'tmpSfxu7y'
p1667
(lp1668
(I160
I100
tp1669
a(I64
I113
tp1670
asS'tmp1mQKDg'
p1671
(lp1672
(I162
I110
tp1673
a(I243
I110
tp1674
asS'tmpFJz9r1'
p1675
(lp1676
(I163
I104
tp1677
a(I244
I117
tp1678
asS'tmproZqq7'
p1679
(lp1680
sS'tmpwW_Zz4'
p1681
(lp1682
sS'tmpxXjUhN'
p1683
(lp1684
sS'tmpDh1lyp'
p1685
(lp1686
(I165
I117
tp1687
asS'tmpvOYxs3'
p1688
(lp1689
sS'tmpo_wLJ2'
p1690
(lp1691
sS'tmpNidYUf'
p1692
(lp1693
(I173
I107
tp1694
asS'tmpqcuth2'
p1695
(lp1696
sS'tmpzju25b'
p1697
(lp1698
sS'tmpxRJqP0'
p1699
(lp1700
sS'tmpMR9Twq'
p1701
(lp1702
(I160
I117
tp1703
asS'tmpG2MuUE'
p1704
(lp1705
(I256
I113
tp1706
asS'tmpleMI2m'
p1707
(lp1708
sS'tmpj08Z4v'
p1709
(lp1710
sS'tmplWqpIq'
p1711
(lp1712
sS'tmpDOtln8'
p1713
(lp1714
sS'tmp_ArFyI'
p1715
(lp1716
sS'tmp1P566V'
p1717
(lp1718
(I74
I100
tp1719
a(I161
I100
tp1720
asS'tmpTeXh32'
p1721
(lp1722
(I165
I90
tp1723
a(I225
I100
tp1724
a(I69
I101
tp1725
asS'tmpIDLsoM'
p1726
(lp1727
(I161
I114
tp1728
asS'tmp8Iy_5i'
p1729
(lp1730
(I157
I93
tp1731
asS'tmpzyqYSx'
p1732
(lp1733
sS'tmpw9HzZa'
p1734
(lp1735
sS'tmpeXrSyG'
p1736
(lp1737
sS'tmpUUCEmh'
p1738
(lp1739
(I169
I107
tp1740
a(I244
I100
tp1741
asS'tmp2GFv60'
p1742
(lp1743
(I174
I117
tp1744
asS'tmpdzbiSh'
p1745
(lp1746
sS'tmpoyFurG'
p1747
(lp1748
sS'tmpLO4saT'
p1749
(lp1750
(I167
I107
tp1751
asS'tmpF9_6Sx'
p1752
(lp1753
(I75
I87
tp1754
asS'tmpnmzVH1'
p1755
(lp1756
sS'tmp0qJ4fE'
p1757
(lp1758
sS'tmpG1Zt7k'
p1759
(lp1760
(I161
I118
tp1761
a(I262
I122
tp1762
asS'tmppoAufN'
p1763
(lp1764
sS'tmpUak2hV'
p1765
(lp1766
(I172
I102
tp1767
asS'tmpDMBK6R'
p1768
(lp1769
(I173
I104
tp1770
a(I78
I89
tp1771
asS'tmpVbch8A'
p1772
(lp1773
(I181
I108
tp1774
asS'tmp9e4mW7'
p1775
(lp1776
(I165
I107
tp1777
asS'tmptGDfIU'
p1778
(lp1779
sS'tmp5Ho2Op'
p1780
(lp1781
(I69
I136
tp1782
a(I164
I127
tp1783
a(I242
I119
tp1784
asS'tmpOsmdfD'
p1785
(lp1786
(I244
I54
tp1787
a(I77
I44
tp1788
asS'tmppUQGVZ'
p1789
(lp1790
sS'tmp6GrOyP'
p1791
(lp1792
(I233
I105
tp1793
a(I74
I90
tp1794
asS'tmpYkgmFc'
p1795
(lp1796
sS'tmp5FmMun'
p1797
(lp1798
(I164
I99
tp1799
asS'tmpqymQXI'
p1800
(lp1801
sS'tmpoF_iwc'
p1802
(lp1803
sS'tmpAgkJv7'
p1804
(lp1805
(I165
I115
tp1806
asS'tmp4HtLlG'
p1807
(lp1808
(I167
I98
tp1809
asS'tmprrSEXZ'
p1810
(lp1811
sS'tmpFPaSV_'
p1812
(lp1813
(I64
I107
tp1814
a(I170
I107
tp1815
a(I248
I120
tp1816
asS'tmp3xLfIu'
p1817
(lp1818
(I79
I85
tp1819
a(I162
I89
tp1820
asS'tmpMhzPTP'
p1821
(lp1822
(I164
I107
tp1823
asS'tmpfA82Ix'
p1824
(lp1825
sS'tmp_vKSe8'
p1826
(lp1827
sS'tmpdhTtgO'
p1828
(lp1829
sS'tmpu8dUZa'
p1830
(lp1831
sS'tmpwlHzPp'
p1832
(lp1833
sS'tmpSIcJOb'
p1834
(lp1835
(I167
I94
tp1836
a(I80
I94
tp1837
asS'tmp6r3WVJ'
p1838
(lp1839
sS'tmpPRQcsD'
p1840
(lp1841
(I70
I101
tp1842
a(I164
I112
tp1843
a(I242
I109
tp1844
asS'tmppoqkVl'
p1845
(lp1846
sS'tmpnAjRuG'
p1847
(lp1848
sS'tmpwCIGAG'
p1849
(lp1850
sS'tmpvfsPBG'
p1851
(lp1852
sS'tmpIOmQCi'
p1853
(lp1854
(I77
I89
tp1855
a(I174
I113
tp1856
a(I246
I97
tp1857
asS'tmpY3i2lt'
p1858
(lp1859
sS'tmpugtwq0'
p1860
(lp1861
sS'tmpNeOWRS'
p1862
(lp1863
(I165
I102
tp1864
asS'tmp6L6HCT'
p1865
(lp1866
(I68
I87
tp1867
asS'tmp75GZ9w'
p1868
(lp1869
(I76
I91
tp1870
asS'tmpoQdV1k'
p1871
(lp1872
sS'tmplQnDCA'
p1873
(lp1874
sS'tmp1ntciM'
p1875
(lp1876
(I172
I108
tp1877
asS'tmpAL7wWd'
p1878
(lp1879
(I66
I117
tp1880
a(I161
I125
tp1881
a(I246
I115
tp1882
asS'tmpNcaiB9'
p1883
(lp1884
(I167
I102
tp1885
asS'tmp3xx2w7'
p1886
(lp1887
(I165
I103
tp1888
a(I250
I104
tp1889
asS'tmpr3e8hE'
p1890
(lp1891
sS'tmp5SVZj0'
p1892
(lp1893
(I74
I95
tp1894
asS'tmp0yW1FF'
p1895
(lp1896
sS'tmp5mxKj6'
p1897
(lp1898
(I162
I103
tp1899
asS'tmp9kGdNn'
p1900
(lp1901
(I239
I120
tp1902
asS'tmpyygm4a'
p1903
(lp1904
sS'tmplg68sQ'
p1905
(lp1906
sS'tmpGbQs2R'
p1907
(lp1908
(I164
I109
tp1909
asS'tmpyhgX8q'
p1910
(lp1911
sS'tmpDJgFR9'
p1912
(lp1913
(I159
I97
tp1914
asS'tmpQ6BWX1'
p1915
(lp1916
(I74
I110
tp1917
a(I184
I97
tp1918
asS'tmp7knJEb'
p1919
(lp1920
(I159
I100
tp1921
a(I72
I98
tp1922
asS'tmpGDn2ql'
p1923
(lp1924
(I166
I114
tp1925
asS'tmpGXn4Ud'
p1926
(lp1927
(I70
I114
tp1928
asS'tmpqraQDI'
p1929
(lp1930
sS'tmpxNgMkN'
p1931
(lp1932
sS'tmpFMO4fU'
p1933
(lp1934
(I228
I102
tp1935
asS'tmprGONv0'
p1936
(lp1937
sS'tmpFKHj02'
p1938
(lp1939
(I69
I93
tp1940
asS'tmpXIlkev'
p1941
(lp1942
sS'tmpFFTpoh'
p1943
(lp1944
(I151
I94
tp1945
a(I67
I91
tp1946
asS'tmpgjudM6'
p1947
(lp1948
sS'tmpTaZ7Ar'
p1949
(lp1950
(I157
I99
tp1951
asS'tmpNJVtoJ'
p1952
(lp1953
(I62
I127
tp1954
a(I162
I126
tp1955
a(I238
I116
tp1956
asS'tmpP5XiDG'
p1957
(lp1958
(I104
I37
tp1959
a(I170
I52
tp1960
asS'tmp2doeFT'
p1961
(lp1962
(I167
I98
tp1963
asS'tmp2672iA'
p1964
(lp1965
(I79
I105
tp1966
a(I162
I102
tp1967
asS'tmpRaGHfs'
p1968
(lp1969
sS'tmpmBji07'
p1970
(lp1971
sS'tmp0Yyr8B'
p1972
(lp1973
(I71
I126
tp1974
a(I162
I121
tp1975
a(I238
I122
tp1976
asS'tmp7ebaG5'
p1977
(lp1978
sS'tmpEsLEhR'
p1979
(lp1980
(I160
I110
tp1981
a(I63
I103
tp1982
asS'tmplf5uVX'
p1983
(lp1984
sS'tmppivPtv'
p1985
(lp1986
sS'tmpRAHyjr'
p1987
(lp1988
(I168
I57
tp1989
a(I87
I58
tp1990
a(I248
I50
tp1991
asS'tmpQMQzYW'
p1992
(lp1993
(I169
I103
tp1994
a(I72
I90
tp1995
a(I254
I93
tp1996
asS'tmp1J9X3G'
p1997
(lp1998
(I170
I104
tp1999
asS'tmpBgp00c'
p2000
(lp2001
(I163
I106
tp2002
asS'tmp3FAUiv'
p2003
(lp2004
(I72
I108
tp2005
a(I167
I120
tp2006
a(I247
I118
tp2007
asS'tmpNGShdV'
p2008
(lp2009
(I154
I117
tp2010
asS'tmpOm78Pa'
p2011
(lp2012
(I183
I106
tp2013
asS'tmpwmrD3h'
p2014
(lp2015
sS'tmpTjSIKw'
p2016
(lp2017
(I165
I100
tp2018
asS'tmp_4vRTE'
p2019
(lp2020
sS'tmphcGNER'
p2021
(lp2022
sS'tmpqrmbQp'
p2023
(lp2024
sS'tmpvClQjD'
p2025
(lp2026
sS'tmpyyGDcg'
p2027
(lp2028
sS'tmpb_GELb'
p2029
(lp2030
sS'tmpLL9MJX'
p2031
(lp2032
(I124
I123
tp2033
a(I172
I124
tp2034
asS'tmpaMuXhM'
p2035
(lp2036
sS'tmpc761zS'
p2037
(lp2038
sS'tmpcjRze6'
p2039
(lp2040
sS'tmp_fiaId'
p2041
(lp2042
sS'tmpPvGeZc'
p2043
(lp2044
sS'tmpLGkIbU'
p2045
(lp2046
(I176
I60
tp2047
asS'tmpjxJTUK'
p2048
(lp2049
sS'tmpcr5WR0'
p2050
(lp2051
sS'tmpDhoeGM'
p2052
(lp2053
(I165
I109
tp2054
a(I75
I93
tp2055
asS'tmpwx16Od'
p2056
(lp2057
sS'tmpM23FQI'
p2058
(lp2059
(I70
I92
tp2060
a(I171
I107
tp2061
asS'tmpQcoWKK'
p2062
(lp2063
(I170
I106
tp2064
asS'tmpK04IaU'
p2065
(lp2066
(I69
I118
tp2067
a(I170
I112
tp2068
a(I240
I116
tp2069
asS'tmpdnQyJ8'
p2070
(lp2071
sS'tmpdd4LHZ'
p2072
(lp2073
sS'tmp8wvAi0'
p2074
(lp2075
(I176
I57
tp2076
a(I78
I36
tp2077
asS'tmph5KYQ6'
p2078
(lp2079
sS'tmptzk4Ue'
p2080
(lp2081
sS'tmp6uf0Au'
p2082
(lp2083
(I76
I99
tp2084
asS'tmpcoKTzb'
p2085
(lp2086
sS'tmpKsdIBg'
p2087
(lp2088
(I76
I82
tp2089
a(I172
I105
tp2090
asS'tmppPnaz2'
p2091
(lp2092
sS'tmpfAquvf'
p2093
(lp2094
sS'tmpcUTjt0'
p2095
(lp2096
sS'tmps_P89n'
p2097
(lp2098
sS'tmp0IIJ0A'
p2099
(lp2100
(I68
I103
tp2101
a(I246
I115
tp2102
a(I170
I106
tp2103
asS'tmpV5Q5LR'
p2104
(lp2105
(I148
I97
tp2106
asS'tmpn4a3xk'
p2107
(lp2108
sS'tmpE0O3oV'
p2109
(lp2110
(I166
I99
tp2111
asS'tmpv5FfgA'
p2112
(lp2113
sS'tmpnVsoM4'
p2114
(lp2115
sS'tmpsi7gkK'
p2116
(lp2117
sS'tmpfPaROi'
p2118
(lp2119
sS'tmpe6a1lr'
p2120
(lp2121
sS'tmp8oPj9Y'
p2122
(lp2123
(I74
I113
tp2124
a(I167
I114
tp2125
asS'tmp3MCkBl'
p2126
(lp2127
(I167
I118
tp2128
a(I241
I122
tp2129
asS'tmpozBSNf'
p2130
(lp2131
sS'tmpPst32w'
p2132
(lp2133
sS'tmp44bXZx'
p2134
(lp2135
(I67
I94
tp2136
a(I177
I104
tp2137
asS'tmpWXqDJv'
p2138
(lp2139
(I165
I102
tp2140
a(I85
I91
tp2141
asS'tmpD2Ng4w'
p2142
(lp2143
(I167
I110
tp2144
asS'tmpZdyRX1'
p2145
(lp2146
sS'tmpyEjgLJ'
p2147
(lp2148
sS'tmpT_opfH'
p2149
(lp2150
(I75
I93
tp2151
a(I175
I101
tp2152
as.